Archive member included because of file (symbol)

/Users/alexanderryan/Programming/SmartMouse/MapleCode/arm/bin/../lib/gcc/arm-none-eabi/4.4.1/thumb2/libgcc.a(_arm_addsubdf3.o)
                              build/../../libmaple/wirish/Print.o (__aeabi_dsub)
/Users/alexanderryan/Programming/SmartMouse/MapleCode/arm/bin/../lib/gcc/arm-none-eabi/4.4.1/thumb2/libgcc.a(_arm_muldivdf3.o)
                              build/../../libmaple/wirish/Print.o (__aeabi_dmul)
/Users/alexanderryan/Programming/SmartMouse/MapleCode/arm/bin/../lib/gcc/arm-none-eabi/4.4.1/thumb2/libgcc.a(_arm_cmpdf2.o)
                              build/../../libmaple/wirish/Print.o (__aeabi_dcmplt)
/Users/alexanderryan/Programming/SmartMouse/MapleCode/arm/bin/../lib/gcc/arm-none-eabi/4.4.1/thumb2/libgcc.a(_arm_fixdfsi.o)
                              build/../../libmaple/wirish/Print.o (__aeabi_d2iz)
/Users/alexanderryan/Programming/SmartMouse/MapleCode/arm/bin/../lib/gcc/arm-none-eabi/4.4.1/thumb2/libgcc.a(_aeabi_uldivmod.o)
                              build/../../libmaple/wirish/Print.o (__aeabi_uldivmod)
/Users/alexanderryan/Programming/SmartMouse/MapleCode/arm/bin/../lib/gcc/arm-none-eabi/4.4.1/thumb2/libgcc.a(_fixdfdi.o)
                              build/../../libmaple/wirish/Print.o (__aeabi_d2lz)
/Users/alexanderryan/Programming/SmartMouse/MapleCode/arm/bin/../lib/gcc/arm-none-eabi/4.4.1/thumb2/libgcc.a(_fixunsdfdi.o)
                              /Users/alexanderryan/Programming/SmartMouse/MapleCode/arm/bin/../lib/gcc/arm-none-eabi/4.4.1/thumb2/libgcc.a(_fixdfdi.o) (__aeabi_d2ulz)
/Users/alexanderryan/Programming/SmartMouse/MapleCode/arm/bin/../lib/gcc/arm-none-eabi/4.4.1/thumb2/libgcc.a(bpabi.o)
                              /Users/alexanderryan/Programming/SmartMouse/MapleCode/arm/bin/../lib/gcc/arm-none-eabi/4.4.1/thumb2/libgcc.a(_aeabi_uldivmod.o) (__gnu_uldivmod_helper)
/Users/alexanderryan/Programming/SmartMouse/MapleCode/arm/bin/../lib/gcc/arm-none-eabi/4.4.1/thumb2/libgcc.a(_dvmd_tls.o)
                              /Users/alexanderryan/Programming/SmartMouse/MapleCode/arm/bin/../lib/gcc/arm-none-eabi/4.4.1/thumb2/libgcc.a(_aeabi_uldivmod.o) (__aeabi_ldiv0)
/Users/alexanderryan/Programming/SmartMouse/MapleCode/arm/bin/../lib/gcc/arm-none-eabi/4.4.1/thumb2/libgcc.a(_arm_fixunsdfsi.o)
                              /Users/alexanderryan/Programming/SmartMouse/MapleCode/arm/bin/../lib/gcc/arm-none-eabi/4.4.1/thumb2/libgcc.a(_fixunsdfdi.o) (__aeabi_d2uiz)
/Users/alexanderryan/Programming/SmartMouse/MapleCode/arm/bin/../lib/gcc/arm-none-eabi/4.4.1/thumb2/libgcc.a(_divdi3.o)
                              /Users/alexanderryan/Programming/SmartMouse/MapleCode/arm/bin/../lib/gcc/arm-none-eabi/4.4.1/thumb2/libgcc.a(bpabi.o) (__divdi3)
/Users/alexanderryan/Programming/SmartMouse/MapleCode/arm/bin/../lib/gcc/arm-none-eabi/4.4.1/thumb2/libgcc.a(_udivdi3.o)
                              /Users/alexanderryan/Programming/SmartMouse/MapleCode/arm/bin/../lib/gcc/arm-none-eabi/4.4.1/thumb2/libgcc.a(bpabi.o) (__udivdi3)
/Users/alexanderryan/Programming/SmartMouse/MapleCode/arm/bin/../lib/gcc/arm-none-eabi/4.4.1/thumb2/libgcc.a(_udivsi3.o)
                              /Users/alexanderryan/Programming/SmartMouse/MapleCode/arm/bin/../lib/gcc/arm-none-eabi/4.4.1/thumb2/libgcc.a(_divdi3.o) (__aeabi_uidiv)
/Users/alexanderryan/Programming/SmartMouse/MapleCode/arm/bin/../lib/gcc/arm-none-eabi/4.4.1/../../../../arm-none-eabi/lib/thumb2/libc.a(lib_a-errno.o)
                              build/../../libmaple/libmaple/syscalls.o (__errno)
/Users/alexanderryan/Programming/SmartMouse/MapleCode/arm/bin/../lib/gcc/arm-none-eabi/4.4.1/../../../../arm-none-eabi/lib/thumb2/libc.a(lib_a-impure.o)
                              /Users/alexanderryan/Programming/SmartMouse/MapleCode/arm/bin/../lib/gcc/arm-none-eabi/4.4.1/../../../../arm-none-eabi/lib/thumb2/libc.a(lib_a-errno.o) (_impure_ptr)
/Users/alexanderryan/Programming/SmartMouse/MapleCode/arm/bin/../lib/gcc/arm-none-eabi/4.4.1/../../../../arm-none-eabi/lib/thumb2/libc.a(lib_a-memcmp.o)
                              build/../../libmaple/libraries/FreeRTOS/utility/tasks.o (memcmp)
/Users/alexanderryan/Programming/SmartMouse/MapleCode/arm/bin/../lib/gcc/arm-none-eabi/4.4.1/../../../../arm-none-eabi/lib/thumb2/libc.a(lib_a-memcpy.o)
                              build/../../libmaple/libraries/FreeRTOS/utility/queue.o (memcpy)
/Users/alexanderryan/Programming/SmartMouse/MapleCode/arm/bin/../lib/gcc/arm-none-eabi/4.4.1/../../../../arm-none-eabi/lib/thumb2/libc.a(lib_a-memset.o)
                              build/../../libmaple/libraries/FreeRTOS/utility/tasks.o (memset)
/Users/alexanderryan/Programming/SmartMouse/MapleCode/arm/bin/../lib/gcc/arm-none-eabi/4.4.1/../../../../arm-none-eabi/lib/thumb2/libc.a(lib_a-rand.o)
                              build/../../libmaple/wirish/wirish_math.o (rand)
/Users/alexanderryan/Programming/SmartMouse/MapleCode/arm/bin/../lib/gcc/arm-none-eabi/4.4.1/../../../../arm-none-eabi/lib/thumb2/libc.a(lib_a-sprintf.o)
                              build/../../libmaple/libraries/FreeRTOS/utility/tasks.o (sprintf)
/Users/alexanderryan/Programming/SmartMouse/MapleCode/arm/bin/../lib/gcc/arm-none-eabi/4.4.1/../../../../arm-none-eabi/lib/thumb2/libc.a(lib_a-strcat.o)
                              build/../../libmaple/libraries/FreeRTOS/utility/tasks.o (strcat)
/Users/alexanderryan/Programming/SmartMouse/MapleCode/arm/bin/../lib/gcc/arm-none-eabi/4.4.1/../../../../arm-none-eabi/lib/thumb2/libc.a(lib_a-strlen.o)
                              build/../../libmaple/wirish/usb_serial.o (strlen)
/Users/alexanderryan/Programming/SmartMouse/MapleCode/arm/bin/../lib/gcc/arm-none-eabi/4.4.1/../../../../arm-none-eabi/lib/thumb2/libc.a(lib_a-strncpy.o)
                              build/../../libmaple/libraries/FreeRTOS/utility/tasks.o (strncpy)
/Users/alexanderryan/Programming/SmartMouse/MapleCode/arm/bin/../lib/gcc/arm-none-eabi/4.4.1/../../../../arm-none-eabi/lib/thumb2/libc.a(lib_a-svfprintf.o)
                              /Users/alexanderryan/Programming/SmartMouse/MapleCode/arm/bin/../lib/gcc/arm-none-eabi/4.4.1/../../../../arm-none-eabi/lib/thumb2/libc.a(lib_a-sprintf.o) (_svfprintf_r)
/Users/alexanderryan/Programming/SmartMouse/MapleCode/arm/bin/../lib/gcc/arm-none-eabi/4.4.1/../../../../arm-none-eabi/lib/thumb2/libc.a(lib_a-dtoa.o)
                              /Users/alexanderryan/Programming/SmartMouse/MapleCode/arm/bin/../lib/gcc/arm-none-eabi/4.4.1/../../../../arm-none-eabi/lib/thumb2/libc.a(lib_a-svfprintf.o) (_dtoa_r)
/Users/alexanderryan/Programming/SmartMouse/MapleCode/arm/bin/../lib/gcc/arm-none-eabi/4.4.1/../../../../arm-none-eabi/lib/thumb2/libc.a(lib_a-freer.o)
                              /Users/alexanderryan/Programming/SmartMouse/MapleCode/arm/bin/../lib/gcc/arm-none-eabi/4.4.1/../../../../arm-none-eabi/lib/thumb2/libc.a(lib_a-svfprintf.o) (_free_r)
/Users/alexanderryan/Programming/SmartMouse/MapleCode/arm/bin/../lib/gcc/arm-none-eabi/4.4.1/../../../../arm-none-eabi/lib/thumb2/libc.a(lib_a-locale.o)
                              /Users/alexanderryan/Programming/SmartMouse/MapleCode/arm/bin/../lib/gcc/arm-none-eabi/4.4.1/../../../../arm-none-eabi/lib/thumb2/libc.a(lib_a-svfprintf.o) (_localeconv_r)
/Users/alexanderryan/Programming/SmartMouse/MapleCode/arm/bin/../lib/gcc/arm-none-eabi/4.4.1/../../../../arm-none-eabi/lib/thumb2/libc.a(lib_a-malloc.o)
                              /Users/alexanderryan/Programming/SmartMouse/MapleCode/arm/bin/../lib/gcc/arm-none-eabi/4.4.1/../../../../arm-none-eabi/lib/thumb2/libc.a(lib_a-rand.o) (malloc)
/Users/alexanderryan/Programming/SmartMouse/MapleCode/arm/bin/../lib/gcc/arm-none-eabi/4.4.1/../../../../arm-none-eabi/lib/thumb2/libc.a(lib_a-mallocr.o)
                              /Users/alexanderryan/Programming/SmartMouse/MapleCode/arm/bin/../lib/gcc/arm-none-eabi/4.4.1/../../../../arm-none-eabi/lib/thumb2/libc.a(lib_a-svfprintf.o) (_malloc_r)
/Users/alexanderryan/Programming/SmartMouse/MapleCode/arm/bin/../lib/gcc/arm-none-eabi/4.4.1/../../../../arm-none-eabi/lib/thumb2/libc.a(lib_a-memchr.o)
                              /Users/alexanderryan/Programming/SmartMouse/MapleCode/arm/bin/../lib/gcc/arm-none-eabi/4.4.1/../../../../arm-none-eabi/lib/thumb2/libc.a(lib_a-svfprintf.o) (memchr)
/Users/alexanderryan/Programming/SmartMouse/MapleCode/arm/bin/../lib/gcc/arm-none-eabi/4.4.1/../../../../arm-none-eabi/lib/thumb2/libc.a(lib_a-memmove.o)
                              /Users/alexanderryan/Programming/SmartMouse/MapleCode/arm/bin/../lib/gcc/arm-none-eabi/4.4.1/../../../../arm-none-eabi/lib/thumb2/libc.a(lib_a-svfprintf.o) (memmove)
/Users/alexanderryan/Programming/SmartMouse/MapleCode/arm/bin/../lib/gcc/arm-none-eabi/4.4.1/../../../../arm-none-eabi/lib/thumb2/libc.a(lib_a-mlock.o)
                              /Users/alexanderryan/Programming/SmartMouse/MapleCode/arm/bin/../lib/gcc/arm-none-eabi/4.4.1/../../../../arm-none-eabi/lib/thumb2/libc.a(lib_a-freer.o) (__malloc_lock)
/Users/alexanderryan/Programming/SmartMouse/MapleCode/arm/bin/../lib/gcc/arm-none-eabi/4.4.1/../../../../arm-none-eabi/lib/thumb2/libc.a(lib_a-mprec.o)
                              /Users/alexanderryan/Programming/SmartMouse/MapleCode/arm/bin/../lib/gcc/arm-none-eabi/4.4.1/../../../../arm-none-eabi/lib/thumb2/libc.a(lib_a-dtoa.o) (__hi0bits)
/Users/alexanderryan/Programming/SmartMouse/MapleCode/arm/bin/../lib/gcc/arm-none-eabi/4.4.1/../../../../arm-none-eabi/lib/thumb2/libc.a(lib_a-reallocr.o)
                              /Users/alexanderryan/Programming/SmartMouse/MapleCode/arm/bin/../lib/gcc/arm-none-eabi/4.4.1/../../../../arm-none-eabi/lib/thumb2/libc.a(lib_a-svfprintf.o) (_realloc_r)
/Users/alexanderryan/Programming/SmartMouse/MapleCode/arm/bin/../lib/gcc/arm-none-eabi/4.4.1/../../../../arm-none-eabi/lib/thumb2/libc.a(lib_a-s_isinfd.o)
                              /Users/alexanderryan/Programming/SmartMouse/MapleCode/arm/bin/../lib/gcc/arm-none-eabi/4.4.1/../../../../arm-none-eabi/lib/thumb2/libc.a(lib_a-svfprintf.o) (__isinfd)
/Users/alexanderryan/Programming/SmartMouse/MapleCode/arm/bin/../lib/gcc/arm-none-eabi/4.4.1/../../../../arm-none-eabi/lib/thumb2/libc.a(lib_a-s_isnand.o)
                              /Users/alexanderryan/Programming/SmartMouse/MapleCode/arm/bin/../lib/gcc/arm-none-eabi/4.4.1/../../../../arm-none-eabi/lib/thumb2/libc.a(lib_a-svfprintf.o) (__isnand)
/Users/alexanderryan/Programming/SmartMouse/MapleCode/arm/bin/../lib/gcc/arm-none-eabi/4.4.1/../../../../arm-none-eabi/lib/thumb2/libc.a(lib_a-sbrkr.o)
                              /Users/alexanderryan/Programming/SmartMouse/MapleCode/arm/bin/../lib/gcc/arm-none-eabi/4.4.1/../../../../arm-none-eabi/lib/thumb2/libc.a(lib_a-freer.o) (_sbrk_r)
/Users/alexanderryan/Programming/SmartMouse/MapleCode/arm/bin/../lib/gcc/arm-none-eabi/4.4.1/../../../../arm-none-eabi/lib/thumb2/libc.a(lib_a-strcmp.o)
                              /Users/alexanderryan/Programming/SmartMouse/MapleCode/arm/bin/../lib/gcc/arm-none-eabi/4.4.1/../../../../arm-none-eabi/lib/thumb2/libc.a(lib_a-locale.o) (strcmp)
/Users/alexanderryan/Programming/SmartMouse/MapleCode/arm/bin/../lib/gcc/arm-none-eabi/4.4.1/../../../../arm-none-eabi/lib/thumb2/libc.a(lib_a-callocr.o)
                              /Users/alexanderryan/Programming/SmartMouse/MapleCode/arm/bin/../lib/gcc/arm-none-eabi/4.4.1/../../../../arm-none-eabi/lib/thumb2/libc.a(lib_a-mprec.o) (_calloc_r)
/Users/alexanderryan/Programming/SmartMouse/MapleCode/arm/bin/../lib/gcc/arm-none-eabi/4.4.1/../../../../arm-none-eabi/lib/thumb2/libc.a(lib_a-reent.o)
                              /Users/alexanderryan/Programming/SmartMouse/MapleCode/arm/bin/../lib/gcc/arm-none-eabi/4.4.1/../../../../arm-none-eabi/lib/thumb2/libc.a(lib_a-sbrkr.o) (errno)
/Users/alexanderryan/Programming/SmartMouse/MapleCode/arm/bin/../lib/gcc/arm-none-eabi/4.4.1/thumb2/libgcc.a(_divsi3.o)
                              /Users/alexanderryan/Programming/SmartMouse/MapleCode/arm/bin/../lib/gcc/arm-none-eabi/4.4.1/../../../../arm-none-eabi/lib/thumb2/libc.a(lib_a-svfprintf.o) (__aeabi_idiv)
../../libmaple/support/ld/libcs3_stm32_high_density.a(stm32_vector_table.o)
                              (__cs3_stm32_vector_table)
../../libmaple/support/ld/libcs3_stm32_high_density.a(stm32_isrs.o)
                              (__stm32reservedexception7)
../../libmaple/support/ld/libcs3_stm32_high_density.a(start.o)
                              (_start)
../../libmaple/support/ld/libcs3_stm32_high_density.a(start_c.o)
                              (__cs3_start_c)
/Users/alexanderryan/Programming/SmartMouse/MapleCode/arm/bin/../lib/gcc/arm-none-eabi/4.4.1/../../../../arm-none-eabi/lib/thumb2/libc.a(lib_a-init.o)
                              ../../libmaple/support/ld/libcs3_stm32_high_density.a(start_c.o) (__libc_init_array)

Allocating common symbols
Common symbol       size              file

SaveRState          0x2               build/../../libmaple/libmaple/usb/usb.o
SaveState           0x2               build/../../libmaple/libmaple/usb/usb_lib/usb_init.o
errno               0x4               /Users/alexanderryan/Programming/SmartMouse/MapleCode/arm/bin/../lib/gcc/arm-none-eabi/4.4.1/../../../../arm-none-eabi/lib/thumb2/libc.a(lib_a-reent.o)
vcomBufferRx        0xc0              build/../../libmaple/libmaple/usb/usb_cdcacm.o
pProperty           0x4               build/../../libmaple/libmaple/usb/usb_lib/usb_init.o
EPindex             0x1               build/../../libmaple/libmaple/usb/usb_lib/usb_init.o
SaveTState          0x2               build/../../libmaple/libmaple/usb/usb.o
systick_uptime_millis
                    0x4               build/../../libmaple/libmaple/systick.o
Device_Info         0x1c              build/../../libmaple/libmaple/usb/usb_lib/usb_init.o
pUser_Standard_Requests
                    0x4               build/../../libmaple/libmaple/usb/usb_lib/usb_init.o
StatusInfo          0x2               build/../../libmaple/libmaple/usb/usb_lib/usb_core.o
pInformation        0x4               build/../../libmaple/libmaple/usb/usb_lib/usb_init.o
ResumeS             0x2               build/../../libmaple/libmaple/usb/usb.o
wInterrupt_Mask     0x2               build/../../libmaple/libmaple/usb/usb_lib/usb_init.o

Discarded input sections

 .text          0x00000000        0x0 /Users/alexanderryan/Programming/SmartMouse/MapleCode/arm/bin/../lib/gcc/arm-none-eabi/4.4.1/thumb2/crti.o
 .data          0x00000000        0x0 /Users/alexanderryan/Programming/SmartMouse/MapleCode/arm/bin/../lib/gcc/arm-none-eabi/4.4.1/thumb2/crti.o
 .bss           0x00000000        0x0 /Users/alexanderryan/Programming/SmartMouse/MapleCode/arm/bin/../lib/gcc/arm-none-eabi/4.4.1/thumb2/crti.o
 .data          0x00000000        0x4 /Users/alexanderryan/Programming/SmartMouse/MapleCode/arm/bin/../lib/gcc/arm-none-eabi/4.4.1/thumb2/crtbegin.o
 .text          0x00000000        0x0 build/../../libmaple/libmaple/adc.o
 .data          0x00000000        0x0 build/../../libmaple/libmaple/adc.o
 .bss           0x00000000        0x0 build/../../libmaple/libmaple/adc.o
 .text.adc_set_extsel
                0x00000000       0x10 build/../../libmaple/libmaple/adc.o
 .text.adc_init
                0x00000000       0x14 build/../../libmaple/libmaple/adc.o
 .text.bb_perip
                0x00000000        0xc build/../../libmaple/libmaple/adc.o
 .text.adc_calibrate
                0x00000000       0x2e build/../../libmaple/libmaple/adc.o
 .text          0x00000000        0x0 build/../../libmaple/libmaple/bkp.o
 .data          0x00000000        0x0 build/../../libmaple/libmaple/bkp.o
 .bss           0x00000000        0x0 build/../../libmaple/libmaple/bkp.o
 .text.data_register
                0x00000000       0x28 build/../../libmaple/libmaple/bkp.o
 .text.bkp_write
                0x00000000       0x24 build/../../libmaple/libmaple/bkp.o
 .text.bkp_read
                0x00000000       0x28 build/../../libmaple/libmaple/bkp.o
 .text.bkp_init
                0x00000000       0x18 build/../../libmaple/libmaple/bkp.o
 .text.T.4      0x00000000        0x8 build/../../libmaple/libmaple/bkp.o
 .text.bkp_disable_writes
                0x00000000        0xc build/../../libmaple/libmaple/bkp.o
 .text.bkp_enable_writes
                0x00000000        0xc build/../../libmaple/libmaple/bkp.o
 .data.bkp      0x00000000        0x4 build/../../libmaple/libmaple/bkp.o
 .data.BKP      0x00000000        0x4 build/../../libmaple/libmaple/bkp.o
 .rodata.str1.1
                0x00000000       0x20 build/../../libmaple/libmaple/bkp.o
 .text          0x00000000        0x0 build/../../libmaple/libmaple/dac.o
 .data          0x00000000        0x0 build/../../libmaple/libmaple/dac.o
 .bss           0x00000000        0x0 build/../../libmaple/libmaple/dac.o
 .text.dac_write_channel
                0x00000000       0x1e build/../../libmaple/libmaple/dac.o
 .text.dac_disable_channel
                0x00000000       0x22 build/../../libmaple/libmaple/dac.o
 .text.dac_enable_channel
                0x00000000       0x44 build/../../libmaple/libmaple/dac.o
 .text.dac_init
                0x00000000       0x34 build/../../libmaple/libmaple/dac.o
 .data.dac      0x00000000        0x4 build/../../libmaple/libmaple/dac.o
 .data.DAC      0x00000000        0x4 build/../../libmaple/libmaple/dac.o
 .text          0x00000000        0x0 build/../../libmaple/libmaple/dma.o
 .data          0x00000000        0x0 build/../../libmaple/libmaple/dma.o
 .bss           0x00000000        0x0 build/../../libmaple/libmaple/dma.o
 .text.dma_channel_regs
                0x00000000        0xe build/../../libmaple/libmaple/dma.o
 .text.dma_is_channel_enabled
                0x00000000        0xe build/../../libmaple/libmaple/dma.o
 .text.dma_attach_interrupt
                0x00000000       0x28 build/../../libmaple/libmaple/dma.o
 .text.dma_detach_interrupt
                0x00000000       0x1a build/../../libmaple/libmaple/dma.o
 .text.dma_set_per_addr
                0x00000000       0x30 build/../../libmaple/libmaple/dma.o
 .text.dma_set_mem_addr
                0x00000000       0x30 build/../../libmaple/libmaple/dma.o
 .text.dma_set_priority
                0x00000000       0x34 build/../../libmaple/libmaple/dma.o
 .text.dma_set_num_transfers
                0x00000000       0x2c build/../../libmaple/libmaple/dma.o
 .text.dma_get_irq_cause
                0x00000000       0x60 build/../../libmaple/libmaple/dma.o
 .text.dma_init
                0x00000000        0x6 build/../../libmaple/libmaple/dma.o
 .text.T.27     0x00000000        0xa build/../../libmaple/libmaple/dma.o
 .text.dma_disable
                0x00000000       0x10 build/../../libmaple/libmaple/dma.o
 .text.dma_setup_transfer
                0x00000000       0x38 build/../../libmaple/libmaple/dma.o
 .text.dma_enable
                0x00000000       0x10 build/../../libmaple/libmaple/dma.o
 .rodata.str1.1
                0x00000000       0x59 build/../../libmaple/libmaple/dma.o
 .text          0x00000000        0x0 build/../../libmaple/libmaple/exti.o
 .data          0x00000000        0x0 build/../../libmaple/libmaple/exti.o
 .bss           0x00000000        0x0 build/../../libmaple/libmaple/exti.o
 .text.bb_peri_set_bit
                0x00000000        0xe build/../../libmaple/libmaple/exti.o
 .text.exti_detach_interrupt
                0x00000000       0x3c build/../../libmaple/libmaple/exti.o
 .text.exti_attach_interrupt
                0x00000000       0x98 build/../../libmaple/libmaple/exti.o
 .rodata.str1.1
                0x00000000       0x27 build/../../libmaple/libmaple/exti.o
 .text          0x00000000        0x0 build/../../libmaple/libmaple/flash.o
 .data          0x00000000        0x0 build/../../libmaple/libmaple/flash.o
 .bss           0x00000000        0x0 build/../../libmaple/libmaple/flash.o
 .text.flash_set_latency
                0x00000000       0x14 build/../../libmaple/libmaple/flash.o
 .text.flash_enable_prefetch
                0x00000000        0xc build/../../libmaple/libmaple/flash.o
 .text          0x00000000        0x0 build/../../libmaple/libmaple/fsmc.o
 .data          0x00000000        0x0 build/../../libmaple/libmaple/fsmc.o
 .bss           0x00000000        0x0 build/../../libmaple/libmaple/fsmc.o
 .text.fsmc_sram_init_gpios
                0x00000000      0x1d4 build/../../libmaple/libmaple/fsmc.o
 .text          0x00000000        0x0 build/../../libmaple/libmaple/gpio.o
 .data          0x00000000        0x0 build/../../libmaple/libmaple/gpio.o
 .bss           0x00000000        0x0 build/../../libmaple/libmaple/gpio.o
 .text.afio_exti_select
                0x00000000       0x30 build/../../libmaple/libmaple/gpio.o
 .text.afio_remap
                0x00000000       0x20 build/../../libmaple/libmaple/gpio.o
 .text.afio_init
                0x00000000       0x12 build/../../libmaple/libmaple/gpio.o
 .text.gpio_init
                0x00000000       0x14 build/../../libmaple/libmaple/gpio.o
 .text.gpio_init_all
                0x00000000       0x4c build/../../libmaple/libmaple/gpio.o
 .rodata.GPIOE  0x00000000        0x4 build/../../libmaple/libmaple/gpio.o
 .rodata.GPIOF  0x00000000        0x4 build/../../libmaple/libmaple/gpio.o
 .rodata.GPIOG  0x00000000        0x4 build/../../libmaple/libmaple/gpio.o
 .data.gpioe    0x00000000        0x8 build/../../libmaple/libmaple/gpio.o
 .data.gpiof    0x00000000        0x8 build/../../libmaple/libmaple/gpio.o
 .data.gpiog    0x00000000        0x8 build/../../libmaple/libmaple/gpio.o
 .text          0x00000000        0x0 build/../../libmaple/libmaple/iwdg.o
 .data          0x00000000        0x0 build/../../libmaple/libmaple/iwdg.o
 .bss           0x00000000        0x0 build/../../libmaple/libmaple/iwdg.o
 .text.iwdg_feed
                0x00000000       0x10 build/../../libmaple/libmaple/iwdg.o
 .text.iwdg_init
                0x00000000       0x1c build/../../libmaple/libmaple/iwdg.o
 .text          0x00000000        0x0 build/../../libmaple/libmaple/nvic.o
 .data          0x00000000        0x0 build/../../libmaple/libmaple/nvic.o
 .bss           0x00000000        0x0 build/../../libmaple/libmaple/nvic.o
 .text.nvic_irq_set_priority
                0x00000000       0x2c build/../../libmaple/libmaple/nvic.o
 .text.nvic_set_vector_table
                0x00000000       0x14 build/../../libmaple/libmaple/nvic.o
 .text.nvic_init
                0x00000000       0x24 build/../../libmaple/libmaple/nvic.o
 .text.nvic_sys_reset
                0x00000000       0x20 build/../../libmaple/libmaple/nvic.o
 .text          0x00000000        0x0 build/../../libmaple/libmaple/pwr.o
 .data          0x00000000        0x0 build/../../libmaple/libmaple/pwr.o
 .bss           0x00000000        0x0 build/../../libmaple/libmaple/pwr.o
 .text.pwr_init
                0x00000000       0x12 build/../../libmaple/libmaple/pwr.o
 .text          0x00000000        0x0 build/../../libmaple/libmaple/i2c.o
 .data          0x00000000        0x0 build/../../libmaple/libmaple/i2c.o
 .bss           0x00000000        0x0 build/../../libmaple/libmaple/i2c.o
 .text.gpio_write_bit
                0x00000000       0x18 build/../../libmaple/libmaple/i2c.o
 .text.gpio_read_bit
                0x00000000        0xc build/../../libmaple/libmaple/i2c.o
 .text.nvic_irq_enable
                0x00000000       0x1c build/../../libmaple/libmaple/i2c.o
 .text.i2c_init
                0x00000000       0x14 build/../../libmaple/libmaple/i2c.o
 .text.i2c_master_xfer
                0x00000000       0x74 build/../../libmaple/libmaple/i2c.o
 .text.T.4      0x00000000        0xa build/../../libmaple/libmaple/i2c.o
 .text.i2c_bus_reset
                0x00000000       0x9e build/../../libmaple/libmaple/i2c.o
 .text.i2c_master_enable
                0x00000000       0xec build/../../libmaple/libmaple/i2c.o
 .rodata.str1.1
                0x00000000       0x5a build/../../libmaple/libmaple/i2c.o
 .rodata.I2C1   0x00000000        0x4 build/../../libmaple/libmaple/i2c.o
 .rodata.I2C2   0x00000000        0x4 build/../../libmaple/libmaple/i2c.o
 .text          0x00000000        0x0 build/../../libmaple/libmaple/rcc.o
 .data          0x00000000        0x0 build/../../libmaple/libmaple/rcc.o
 .bss           0x00000000        0x0 build/../../libmaple/libmaple/rcc.o
 .text.rcc_dev_clk
                0x00000000        0xc build/../../libmaple/libmaple/rcc.o
 .text.rcc_set_prescaler
                0x00000000       0x20 build/../../libmaple/libmaple/rcc.o
 .text.rcc_clk_init
                0x00000000       0x64 build/../../libmaple/libmaple/rcc.o
 .text.rcc_reset_dev
                0x00000000       0x34 build/../../libmaple/libmaple/rcc.o
 .rodata.masks.1551
                0x00000000       0x14 build/../../libmaple/libmaple/rcc.o
 .rodata.reset_regs.1534
                0x00000000        0x8 build/../../libmaple/libmaple/rcc.o
 .rodata.str1.1
                0x00000000       0x58 build/../../libmaple/libmaple/rcc.o
 .text          0x00000000        0x0 build/../../libmaple/libmaple/spi.o
 .data          0x00000000        0x0 build/../../libmaple/libmaple/spi.o
 .bss           0x00000000        0x0 build/../../libmaple/libmaple/spi.o
 .text.spi_tx   0x00000000       0x2a build/../../libmaple/libmaple/spi.o
 .text.spi_foreach
                0x00000000       0x24 build/../../libmaple/libmaple/spi.o
 .text.spi_gpio_cfg
                0x00000000       0x66 build/../../libmaple/libmaple/spi.o
 .text.spi_init
                0x00000000       0x14 build/../../libmaple/libmaple/spi.o
 .text.bb_peri_set_bit
                0x00000000        0xe build/../../libmaple/libmaple/spi.o
 .text.spi_peripheral_enable
                0x00000000        0xa build/../../libmaple/libmaple/spi.o
 .text.spi_peripheral_disable
                0x00000000        0xa build/../../libmaple/libmaple/spi.o
 .text.spi_tx_dma_enable
                0x00000000        0xc build/../../libmaple/libmaple/spi.o
 .text.spi_tx_dma_disable
                0x00000000        0xc build/../../libmaple/libmaple/spi.o
 .text.spi_rx_dma_enable
                0x00000000        0xc build/../../libmaple/libmaple/spi.o
 .text.spi_rx_dma_disable
                0x00000000        0xc build/../../libmaple/libmaple/spi.o
 .text.spi_reconfigure
                0x00000000       0x22 build/../../libmaple/libmaple/spi.o
 .text.spi_slave_enable
                0x00000000        0x8 build/../../libmaple/libmaple/spi.o
 .text.spi_master_enable
                0x00000000        0xc build/../../libmaple/libmaple/spi.o
 .data.spi1     0x00000000        0x8 build/../../libmaple/libmaple/spi.o
 .data.spi2     0x00000000        0x8 build/../../libmaple/libmaple/spi.o
 .data.spi3     0x00000000        0x8 build/../../libmaple/libmaple/spi.o
 .data.SPI1     0x00000000        0x4 build/../../libmaple/libmaple/spi.o
 .data.SPI2     0x00000000        0x4 build/../../libmaple/libmaple/spi.o
 .data.SPI3     0x00000000        0x4 build/../../libmaple/libmaple/spi.o
 .text          0x00000000        0x0 build/../../libmaple/libmaple/syscalls.o
 .data          0x00000000        0x0 build/../../libmaple/libmaple/syscalls.o
 .bss           0x00000000        0x0 build/../../libmaple/libmaple/syscalls.o
 .text._open    0x00000000        0x8 build/../../libmaple/libmaple/syscalls.o
 .text._close   0x00000000        0x4 build/../../libmaple/libmaple/syscalls.o
 .text._fstat   0x00000000        0xa build/../../libmaple/libmaple/syscalls.o
 .text._isatty  0x00000000        0x4 build/../../libmaple/libmaple/syscalls.o
 .text.isatty   0x00000000        0x4 build/../../libmaple/libmaple/syscalls.o
 .text._lseek   0x00000000        0x6 build/../../libmaple/libmaple/syscalls.o
 .text.getch    0x00000000        0x4 build/../../libmaple/libmaple/syscalls.o
 .text._read    0x00000000        0x8 build/../../libmaple/libmaple/syscalls.o
 .text.putch    0x00000000        0x2 build/../../libmaple/libmaple/syscalls.o
 .text.cgets    0x00000000       0x22 build/../../libmaple/libmaple/syscalls.o
 .text._write   0x00000000        0x4 build/../../libmaple/libmaple/syscalls.o
 .text.fgets    0x00000000        0xc build/../../libmaple/libmaple/syscalls.o
 .text._sbrk    0x00000000       0x44 build/../../libmaple/libmaple/syscalls.o
 .bss.pbreak.1614
                0x00000000        0x4 build/../../libmaple/libmaple/syscalls.o
 .text          0x00000000        0x0 build/../../libmaple/libmaple/systick.o
 .data          0x00000000        0x0 build/../../libmaple/libmaple/systick.o
 .bss           0x00000000        0x0 build/../../libmaple/libmaple/systick.o
 .text.systick_disable
                0x00000000        0xc build/../../libmaple/libmaple/systick.o
 .text.systick_enable
                0x00000000        0xc build/../../libmaple/libmaple/systick.o
 .text.systick_init
                0x00000000        0xc build/../../libmaple/libmaple/systick.o
 .text.systick_attach_callback
                0x00000000        0xc build/../../libmaple/libmaple/systick.o
 .text          0x00000000        0x0 build/../../libmaple/libmaple/timer.o
 .data          0x00000000        0x0 build/../../libmaple/libmaple/timer.o
 .bss           0x00000000        0x0 build/../../libmaple/libmaple/timer.o
 .text.timer_init
                0x00000000       0x14 build/../../libmaple/libmaple/timer.o
 .text          0x00000000        0x0 build/../../libmaple/libmaple/usart.o
 .data          0x00000000        0x0 build/../../libmaple/libmaple/usart.o
 .bss           0x00000000        0x0 build/../../libmaple/libmaple/usart.o
 .text.usart_enable
                0x00000000       0x10 build/../../libmaple/libmaple/usart.o
 .text.usart_rx
                0x00000000       0x3c build/../../libmaple/libmaple/usart.o
 .text          0x00000000        0x0 build/../../libmaple/libmaple/util.o
 .data          0x00000000        0x0 build/../../libmaple/libmaple/util.o
 .bss           0x00000000        0x0 build/../../libmaple/libmaple/util.o
 .text.abort    0x00000000       0x20 build/../../libmaple/libmaple/util.o
 .text.__assert_func
                0x00000000        0x6 build/../../libmaple/libmaple/util.o
 .text          0x00000000        0x0 build/../../libmaple/libmaple/usb/usb.o
 .data          0x00000000        0x0 build/../../libmaple/libmaple/usb/usb.o
 .bss           0x00000000        0x0 build/../../libmaple/libmaple/usb/usb.o
 .text.usb_init_usblib
                0x00000000       0x4c build/../../libmaple/libmaple/usb/usb.o
 .text.usbWaitReset
                0x00000000       0x10 build/../../libmaple/libmaple/usb/usb.o
 .text          0x00000000        0x0 build/../../libmaple/libmaple/usb/usb_reg_map.o
 .data          0x00000000        0x0 build/../../libmaple/libmaple/usb/usb_reg_map.o
 .bss           0x00000000        0x0 build/../../libmaple/libmaple/usb/usb_reg_map.o
 .text.usb_copy_from_pma
                0x00000000       0x30 build/../../libmaple/libmaple/usb/usb_reg_map.o
 .text          0x00000000        0x0 build/../../libmaple/libmaple/usb/usb_cdcacm.o
 .data          0x00000000        0x0 build/../../libmaple/libmaple/usb/usb_cdcacm.o
 .bss           0x00000000        0x0 build/../../libmaple/libmaple/usb/usb_cdcacm.o
 .text.gpio_write_bit
                0x00000000       0x18 build/../../libmaple/libmaple/usb/usb_cdcacm.o
 .text.usb_cdcacm_data_available
                0x00000000        0xc build/../../libmaple/libmaple/usb/usb_cdcacm.o
 .text.usb_cdcacm_get_pending
                0x00000000        0xc build/../../libmaple/libmaple/usb/usb_cdcacm.o
 .text.usb_cdcacm_get_dtr
                0x00000000       0x10 build/../../libmaple/libmaple/usb/usb_cdcacm.o
 .text.usb_cdcacm_get_rts
                0x00000000       0x10 build/../../libmaple/libmaple/usb/usb_cdcacm.o
 .text.vcomDataTxCb
                0x00000000        0xc build/../../libmaple/libmaple/usb/usb_cdcacm.o
 .text.usbSetConfiguration
                0x00000000       0x1c build/../../libmaple/libmaple/usb/usb_cdcacm.o
 .text.usbSetDeviceAddress
                0x00000000       0x10 build/../../libmaple/libmaple/usb/usb_cdcacm.o
 .text.usb_cdcacm_rx
                0x00000000       0x60 build/../../libmaple/libmaple/usb/usb_cdcacm.o
 .text.usb_cdcacm_enable
                0x00000000       0x2c build/../../libmaple/libmaple/usb/usb_cdcacm.o
 .text.vcomDataRxCb
                0x00000000       0xbc build/../../libmaple/libmaple/usb/usb_cdcacm.o
 .text.usb_cdcacm_disable
                0x00000000       0x14 build/../../libmaple/libmaple/usb/usb_cdcacm.o
 .text.usb_cdcacm_putc
                0x00000000       0x16 build/../../libmaple/libmaple/usb/usb_cdcacm.o
 .data.User_Standard_Requests
                0x00000000       0x24 build/../../libmaple/libmaple/usb/usb_cdcacm.o
 .data.ep_int_in
                0x00000000       0x1c build/../../libmaple/libmaple/usb/usb_cdcacm.o
 .bss.newBytes  0x00000000        0x4 build/../../libmaple/libmaple/usb/usb_cdcacm.o
 .bss.offset.2428
                0x00000000        0x4 build/../../libmaple/libmaple/usb/usb_cdcacm.o
 .data.ep_int_out
                0x00000000       0x1c build/../../libmaple/libmaple/usb/usb_cdcacm.o
 COMMON         0x00000000       0xc0 build/../../libmaple/libmaple/usb/usb_cdcacm.o
 .text          0x00000000        0x0 build/../../libmaple/libmaple/usb/usb_lib/usb_core.o
 .data          0x00000000        0x0 build/../../libmaple/libmaple/usb/usb_lib/usb_core.o
 .bss           0x00000000        0x0 build/../../libmaple/libmaple/usb/usb_lib/usb_core.o
 .text          0x00000000        0x0 build/../../libmaple/libmaple/usb/usb_lib/usb_init.o
 .data          0x00000000        0x0 build/../../libmaple/libmaple/usb/usb_lib/usb_init.o
 .bss           0x00000000        0x0 build/../../libmaple/libmaple/usb/usb_lib/usb_init.o
 .text.USB_Init
                0x00000000       0x38 build/../../libmaple/libmaple/usb/usb_lib/usb_init.o
 .text          0x00000000        0x0 build/../../libmaple/libmaple/usb/usb_lib/usb_mem.o
 .data          0x00000000        0x0 build/../../libmaple/libmaple/usb/usb_lib/usb_mem.o
 .bss           0x00000000        0x0 build/../../libmaple/libmaple/usb/usb_lib/usb_mem.o
 .text          0x00000000        0x0 build/../../libmaple/libmaple/usb/usb_lib/usb_regs.o
 .data          0x00000000        0x0 build/../../libmaple/libmaple/usb/usb_lib/usb_regs.o
 .bss           0x00000000        0x0 build/../../libmaple/libmaple/usb/usb_lib/usb_regs.o
 .text.SetCNTR  0x00000000        0xc build/../../libmaple/libmaple/usb/usb_lib/usb_regs.o
 .text.GetCNTR  0x00000000        0xc build/../../libmaple/libmaple/usb/usb_lib/usb_regs.o
 .text.SetISTR  0x00000000        0xc build/../../libmaple/libmaple/usb/usb_lib/usb_regs.o
 .text.GetISTR  0x00000000        0xc build/../../libmaple/libmaple/usb/usb_lib/usb_regs.o
 .text.GetFNR   0x00000000        0xc build/../../libmaple/libmaple/usb/usb_lib/usb_regs.o
 .text.SetDADDR
                0x00000000        0xc build/../../libmaple/libmaple/usb/usb_lib/usb_regs.o
 .text.GetDADDR
                0x00000000        0xc build/../../libmaple/libmaple/usb/usb_lib/usb_regs.o
 .text.SetBTABLE
                0x00000000       0x14 build/../../libmaple/libmaple/usb/usb_lib/usb_regs.o
 .text.GetBTABLE
                0x00000000        0xc build/../../libmaple/libmaple/usb/usb_lib/usb_regs.o
 .text.SetENDPOINT
                0x00000000        0xe build/../../libmaple/libmaple/usb/usb_lib/usb_regs.o
 .text.GetENDPOINT
                0x00000000       0x10 build/../../libmaple/libmaple/usb/usb_lib/usb_regs.o
 .text.SetEPType
                0x00000000       0x1a build/../../libmaple/libmaple/usb/usb_lib/usb_regs.o
 .text.GetEPType
                0x00000000       0x12 build/../../libmaple/libmaple/usb/usb_lib/usb_regs.o
 .text.SetEPRxStatus
                0x00000000       0x2c build/../../libmaple/libmaple/usb/usb_lib/usb_regs.o
 .text.SetDouBleBuffEPStall
                0x00000000       0x36 build/../../libmaple/libmaple/usb/usb_lib/usb_regs.o
 .text.GetEPTxStatus
                0x00000000       0x12 build/../../libmaple/libmaple/usb/usb_lib/usb_regs.o
 .text.GetEPRxStatus
                0x00000000       0x12 build/../../libmaple/libmaple/usb/usb_lib/usb_regs.o
 .text.SetEPTxValid
                0x00000000       0x1c build/../../libmaple/libmaple/usb/usb_lib/usb_regs.o
 .text.SetEPRxValid
                0x00000000       0x1c build/../../libmaple/libmaple/usb/usb_lib/usb_regs.o
 .text.SetEP_KIND
                0x00000000       0x1c build/../../libmaple/libmaple/usb/usb_lib/usb_regs.o
 .text.ClearEP_KIND
                0x00000000       0x18 build/../../libmaple/libmaple/usb/usb_lib/usb_regs.o
 .text.Clear_Status_Out
                0x00000000       0x18 build/../../libmaple/libmaple/usb/usb_lib/usb_regs.o
 .text.Set_Status_Out
                0x00000000       0x1c build/../../libmaple/libmaple/usb/usb_lib/usb_regs.o
 .text.SetEPDoubleBuff
                0x00000000       0x1c build/../../libmaple/libmaple/usb/usb_lib/usb_regs.o
 .text.ClearEPDoubleBuff
                0x00000000       0x18 build/../../libmaple/libmaple/usb/usb_lib/usb_regs.o
 .text.GetTxStallStatus
                0x00000000       0x1a build/../../libmaple/libmaple/usb/usb_lib/usb_regs.o
 .text.GetRxStallStatus
                0x00000000       0x1c build/../../libmaple/libmaple/usb/usb_lib/usb_regs.o
 .text.ClearEP_CTR_RX
                0x00000000       0x18 build/../../libmaple/libmaple/usb/usb_lib/usb_regs.o
 .text.ClearEP_CTR_TX
                0x00000000       0x18 build/../../libmaple/libmaple/usb/usb_lib/usb_regs.o
 .text.ToggleDTOG_RX
                0x00000000       0x1c build/../../libmaple/libmaple/usb/usb_lib/usb_regs.o
 .text.ToggleDTOG_TX
                0x00000000       0x1c build/../../libmaple/libmaple/usb/usb_lib/usb_regs.o
 .text.SetEPAddress
                0x00000000       0x1a build/../../libmaple/libmaple/usb/usb_lib/usb_regs.o
 .text.GetEPAddress
                0x00000000       0x12 build/../../libmaple/libmaple/usb/usb_lib/usb_regs.o
 .text.SetEPTxAddr
                0x00000000       0x24 build/../../libmaple/libmaple/usb/usb_lib/usb_regs.o
 .text.SetEPRxAddr
                0x00000000       0x24 build/../../libmaple/libmaple/usb/usb_lib/usb_regs.o
 .text.SetEPCountRxReg
                0x00000000       0x28 build/../../libmaple/libmaple/usb/usb_lib/usb_regs.o
 .text.GetEPTxCount
                0x00000000       0x20 build/../../libmaple/libmaple/usb/usb_lib/usb_regs.o
 .text.GetEPRxCount
                0x00000000       0x20 build/../../libmaple/libmaple/usb/usb_lib/usb_regs.o
 .text.SetEPDblBuffAddr
                0x00000000       0x40 build/../../libmaple/libmaple/usb/usb_lib/usb_regs.o
 .text.SetEPDblBuf0Addr
                0x00000000       0x24 build/../../libmaple/libmaple/usb/usb_lib/usb_regs.o
 .text.SetEPDblBuf1Addr
                0x00000000       0x24 build/../../libmaple/libmaple/usb/usb_lib/usb_regs.o
 .text.GetEPDblBuf0Addr
                0x00000000       0x1c build/../../libmaple/libmaple/usb/usb_lib/usb_regs.o
 .text.GetEPDblBuf1Addr
                0x00000000       0x1c build/../../libmaple/libmaple/usb/usb_lib/usb_regs.o
 .text.SetEPDblBuffCount
                0x00000000       0xa8 build/../../libmaple/libmaple/usb/usb_lib/usb_regs.o
 .text.SetEPDblBuf0Count
                0x00000000       0x5c build/../../libmaple/libmaple/usb/usb_lib/usb_regs.o
 .text.SetEPDblBuf1Count
                0x00000000       0x5c build/../../libmaple/libmaple/usb/usb_lib/usb_regs.o
 .text.GetEPDblBuf0Count
                0x00000000       0x20 build/../../libmaple/libmaple/usb/usb_lib/usb_regs.o
 .text.GetEPDblBuf1Count
                0x00000000       0x20 build/../../libmaple/libmaple/usb/usb_lib/usb_regs.o
 .text.GetEPDblBufDir
                0x00000000       0x44 build/../../libmaple/libmaple/usb/usb_lib/usb_regs.o
 .text.FreeUserBuffer
                0x00000000       0x40 build/../../libmaple/libmaple/usb/usb_lib/usb_regs.o
 .text.ToWord   0x00000000        0x6 build/../../libmaple/libmaple/usb/usb_lib/usb_regs.o
 .data          0x00000000        0x0 build/../../libmaple/libmaple/exc.o
 .bss           0x00000000        0x0 build/../../libmaple/libmaple/exc.o
 .text          0x00000000        0x0 build/../../libmaple/wirish/wirish_math.o
 .data          0x00000000        0x0 build/../../libmaple/wirish/wirish_math.o
 .bss           0x00000000        0x0 build/../../libmaple/wirish/wirish_math.o
 .text._Z6randoml
                0x00000000       0x16 build/../../libmaple/wirish/wirish_math.o
 .text._Z6randomll
                0x00000000       0x14 build/../../libmaple/wirish/wirish_math.o
 .text._Z10randomSeedj
                0x00000000        0x8 build/../../libmaple/wirish/wirish_math.o
 .text          0x00000000        0x0 build/../../libmaple/wirish/Print.o
 .data          0x00000000        0x0 build/../../libmaple/wirish/Print.o
 .bss           0x00000000        0x0 build/../../libmaple/wirish/Print.o
 .text._ZN5Print7printlnEc
                0x00000000       0x12 build/../../libmaple/wirish/Print.o
 .text._ZN5Print5printEyi
                0x00000000       0x1e build/../../libmaple/wirish/Print.o
 .text._ZN5Print7printlnEyi
                0x00000000       0x18 build/../../libmaple/wirish/Print.o
 .text._ZN5Print7printlnEmi
                0x00000000       0x1a build/../../libmaple/wirish/Print.o
 .text._ZN5Print5printEmi
                0x00000000        0xe build/../../libmaple/wirish/Print.o
 .text._ZN5Print5printEji
                0x00000000        0xe build/../../libmaple/wirish/Print.o
 .text._ZN5Print7printlnEji
                0x00000000       0x12 build/../../libmaple/wirish/Print.o
 .text._ZN5Print5printEhi
                0x00000000       0x12 build/../../libmaple/wirish/Print.o
 .text._ZN5Print7printlnEhi
                0x00000000       0x12 build/../../libmaple/wirish/Print.o
 .text._ZN5Print7printlnExi
                0x00000000       0x18 build/../../libmaple/wirish/Print.o
 .text._ZN5Print7printlnEli
                0x00000000       0x1c build/../../libmaple/wirish/Print.o
 .text._ZN5Print5printEli
                0x00000000       0x10 build/../../libmaple/wirish/Print.o
 .text._ZN5Print10printFloatEdh
                0x00000000      0x150 build/../../libmaple/wirish/Print.o
 .text._ZN5Print5printEdi
                0x00000000        0xa build/../../libmaple/wirish/Print.o
 .text._ZN5Print7printlnEdi
                0x00000000       0x18 build/../../libmaple/wirish/Print.o
 .rodata.str1.1
                0x00000000       0x11 build/../../libmaple/wirish/Print.o
 .text          0x00000000        0x0 build/../../libmaple/wirish/boards.o
 .data          0x00000000        0x0 build/../../libmaple/wirish/boards.o
 .bss           0x00000000        0x0 build/../../libmaple/wirish/boards.o
 .text._Z12boardUsesPinh
                0x00000000       0x1c build/../../libmaple/wirish/boards.o
 .text._Z4initv
                0x00000000       0x88 build/../../libmaple/wirish/boards.o
 .text._ZL8bb_peripPVvj
                0x00000000        0xc build/../../libmaple/wirish/boards.o
 .text._ZL16adcDefaultConfigPK7adc_dev
                0x00000000       0x3e build/../../libmaple/wirish/boards.o
 .text._ZL18timerDefaultConfigP9timer_dev
                0x00000000       0x98 build/../../libmaple/wirish/boards.o
 .text          0x00000000        0x0 build/../../libmaple/wirish/boards/maple.o
 .data          0x00000000        0x0 build/../../libmaple/wirish/boards/maple.o
 .bss           0x00000000        0x0 build/../../libmaple/wirish/boards/maple.o
 .text          0x00000000        0x0 build/../../libmaple/wirish/boards/maple_mini.o
 .data          0x00000000        0x0 build/../../libmaple/wirish/boards/maple_mini.o
 .bss           0x00000000        0x0 build/../../libmaple/wirish/boards/maple_mini.o
 .text          0x00000000        0x0 build/../../libmaple/wirish/boards/maple_native.o
 .data          0x00000000        0x0 build/../../libmaple/wirish/boards/maple_native.o
 .bss           0x00000000        0x0 build/../../libmaple/wirish/boards/maple_native.o
 .text          0x00000000        0x0 build/../../libmaple/wirish/boards/maple_RET6.o
 .data          0x00000000        0x0 build/../../libmaple/wirish/boards/maple_RET6.o
 .bss           0x00000000        0x0 build/../../libmaple/wirish/boards/maple_RET6.o
 .text._Z9boardInitv
                0x00000000        0x2 build/../../libmaple/wirish/boards/maple_RET6.o
 .USER_FLASH    0x00000000       0x2c build/../../libmaple/wirish/boards/maple_RET6.o
 .text          0x00000000        0x0 build/../../libmaple/wirish/boards/olimex_stm32_h103.o
 .data          0x00000000        0x0 build/../../libmaple/wirish/boards/olimex_stm32_h103.o
 .bss           0x00000000        0x0 build/../../libmaple/wirish/boards/olimex_stm32_h103.o
 .group         0x00000000        0x8 build/../../libmaple/wirish/comm/HardwareSerial.o
 .text          0x00000000        0x0 build/../../libmaple/wirish/comm/HardwareSerial.o
 .data          0x00000000        0x0 build/../../libmaple/wirish/comm/HardwareSerial.o
 .bss           0x00000000        0x0 build/../../libmaple/wirish/comm/HardwareSerial.o
 .text._ZN14HardwareSerialC2EP9usart_devhhj
                0x00000000       0x24 build/../../libmaple/wirish/comm/HardwareSerial.o
 .text._ZN14HardwareSerial4readEv
                0x00000000       0x1c build/../../libmaple/wirish/comm/HardwareSerial.o
 .text._ZN14HardwareSerial9availableEv
                0x00000000       0x22 build/../../libmaple/wirish/comm/HardwareSerial.o
 .text._ZN14HardwareSerial5flushEv
                0x00000000        0xa build/../../libmaple/wirish/comm/HardwareSerial.o
 .text._ZN14HardwareSerial3endEv
                0x00000000        0x6 build/../../libmaple/wirish/comm/HardwareSerial.o
 .text._ZN14HardwareSerial5beginEj
                0x00000000       0x8c build/../../libmaple/wirish/comm/HardwareSerial.o
 .rodata.str1.1
                0x00000000       0x4d build/../../libmaple/wirish/comm/HardwareSerial.o
 .text          0x00000000        0x0 build/../../libmaple/wirish/comm/HardwareSPI.o
 .data          0x00000000        0x0 build/../../libmaple/wirish/comm/HardwareSPI.o
 .bss           0x00000000        0x0 build/../../libmaple/wirish/comm/HardwareSPI.o
 .text.spi_is_rx_nonempty
                0x00000000        0xa build/../../libmaple/wirish/comm/HardwareSPI.o
 .text._ZN11HardwareSPI4readEPhj
                0x00000000       0x26 build/../../libmaple/wirish/comm/HardwareSPI.o
 .text._ZN11HardwareSPI4readEv
                0x00000000       0x10 build/../../libmaple/wirish/comm/HardwareSPI.o
 .text._ZN11HardwareSPI4recvEv
                0x00000000        0x4 build/../../libmaple/wirish/comm/HardwareSPI.o
 .text._ZL15dev_to_spi_pinsP7spi_dev
                0x00000000       0x1c build/../../libmaple/wirish/comm/HardwareSPI.o
 .text._ZN11HardwareSPI6nssPinEv
                0x00000000        0xc build/../../libmaple/wirish/comm/HardwareSPI.o
 .text._ZN11HardwareSPI6sckPinEv
                0x00000000        0xc build/../../libmaple/wirish/comm/HardwareSPI.o
 .text._ZN11HardwareSPI7mosiPinEv
                0x00000000        0xc build/../../libmaple/wirish/comm/HardwareSPI.o
 .text._ZN11HardwareSPI7misoPinEv
                0x00000000        0xc build/../../libmaple/wirish/comm/HardwareSPI.o
 .text._ZN11HardwareSPI5writeEPKhj
                0x00000000       0x1e build/../../libmaple/wirish/comm/HardwareSPI.o
 .text._ZN11HardwareSPI5writeEh
                0x00000000       0x12 build/../../libmaple/wirish/comm/HardwareSPI.o
 .text._ZN11HardwareSPI4sendEPhj
                0x00000000       0x24 build/../../libmaple/wirish/comm/HardwareSPI.o
 .text._ZN11HardwareSPI4sendEh
                0x00000000       0x12 build/../../libmaple/wirish/comm/HardwareSPI.o
 .text._ZN11HardwareSPI8transferEh
                0x00000000       0x12 build/../../libmaple/wirish/comm/HardwareSPI.o
 .text._ZN11HardwareSPI3endEv
                0x00000000       0x4e build/../../libmaple/wirish/comm/HardwareSPI.o
 .text._ZN11HardwareSPIC1Ej
                0x00000000       0x44 build/../../libmaple/wirish/comm/HardwareSPI.o
 .text._ZN11HardwareSPIC2Ej
                0x00000000       0x44 build/../../libmaple/wirish/comm/HardwareSPI.o
 .text._ZL11disable_pwmPK14stm32_pin_info
                0x00000000       0x10 build/../../libmaple/wirish/comm/HardwareSPI.o
 .text._ZL13enable_deviceP7spi_devb12SPIFrequency12spi_cfg_flag8spi_mode
                0x00000000      0x110 build/../../libmaple/wirish/comm/HardwareSPI.o
 .text._ZN11HardwareSPI10beginSlaveEjj
                0x00000000       0x3c build/../../libmaple/wirish/comm/HardwareSPI.o
 .text._ZN11HardwareSPI10beginSlaveEv
                0x00000000        0x8 build/../../libmaple/wirish/comm/HardwareSPI.o
 .text._ZN11HardwareSPI5beginE12SPIFrequencyjj
                0x00000000       0x3c build/../../libmaple/wirish/comm/HardwareSPI.o
 .text._ZN11HardwareSPI5beginEv
                0x00000000        0xa build/../../libmaple/wirish/comm/HardwareSPI.o
 .rodata.CSWTCH.36
                0x00000000       0x64 build/../../libmaple/wirish/comm/HardwareSPI.o
 .USER_FLASH    0x00000000       0x14 build/../../libmaple/wirish/comm/HardwareSPI.o
 .rodata.str1.1
                0x00000000       0x2d build/../../libmaple/wirish/comm/HardwareSPI.o
 .text          0x00000000        0x0 build/../../libmaple/wirish/HardwareTimer.o
 .data          0x00000000        0x0 build/../../libmaple/wirish/HardwareTimer.o
 .bss           0x00000000        0x0 build/../../libmaple/wirish/HardwareTimer.o
 .text._ZN13HardwareTimer17getPrescaleFactorEv
                0x00000000        0xc build/../../libmaple/wirish/HardwareTimer.o
 .text._ZN13HardwareTimer11getOverflowEv
                0x00000000        0xa build/../../libmaple/wirish/HardwareTimer.o
 .text._ZN13HardwareTimer8getCountEv
                0x00000000        0xa build/../../libmaple/wirish/HardwareTimer.o
 .text._ZN13HardwareTimer9setPeriodEj
                0x00000000       0x60 build/../../libmaple/wirish/HardwareTimer.o
 .text._ZN13HardwareTimer10getCompareEi
                0x00000000       0x12 build/../../libmaple/wirish/HardwareTimer.o
 .text._ZN13HardwareTimer15detachInterruptEi
                0x00000000        0x8 build/../../libmaple/wirish/HardwareTimer.o
 .text._ZN13HardwareTimerC2Eh
                0x00000000       0x80 build/../../libmaple/wirish/HardwareTimer.o
 .group         0x00000000        0x8 build/../../libmaple/wirish/usb_serial.o
 .text          0x00000000        0x0 build/../../libmaple/wirish/usb_serial.o
 .data          0x00000000        0x0 build/../../libmaple/wirish/usb_serial.o
 .bss           0x00000000        0x0 build/../../libmaple/wirish/usb_serial.o
 .text._ZN5PrintC2Ev
                0x00000000        0xc build/../../libmaple/wirish/usb_serial.o
 .text._ZN9USBSerialC2Ev
                0x00000000       0x14 build/../../libmaple/wirish/usb_serial.o
 .text._ZN9USBSerial6getRTSEv
                0x00000000        0x4 build/../../libmaple/wirish/usb_serial.o
 .text._ZN9USBSerial6getDTREv
                0x00000000        0x4 build/../../libmaple/wirish/usb_serial.o
 .text._ZN9USBSerial11isConnectedEv
                0x00000000       0x16 build/../../libmaple/wirish/usb_serial.o
 .text._ZN9USBSerial7pendingEv
                0x00000000        0xa build/../../libmaple/wirish/usb_serial.o
 .text._ZN9USBSerial4readEPvj
                0x00000000       0x22 build/../../libmaple/wirish/usb_serial.o
 .text._ZN9USBSerial4readEv
                0x00000000       0x12 build/../../libmaple/wirish/usb_serial.o
 .text._ZN9USBSerial9availableEv
                0x00000000        0x4 build/../../libmaple/wirish/usb_serial.o
 .text._ZN9USBSerial3endEv
                0x00000000       0x10 build/../../libmaple/wirish/usb_serial.o
 .text._ZN9USBSerial5beginEv
                0x00000000       0x10 build/../../libmaple/wirish/usb_serial.o
 .text          0x00000000        0x0 build/../../libmaple/wirish/cxxabi-compat.o
 .data          0x00000000        0x0 build/../../libmaple/wirish/cxxabi-compat.o
 .bss           0x00000000        0x0 build/../../libmaple/wirish/cxxabi-compat.o
 .text          0x00000000        0x0 build/../../libmaple/wirish/wirish_shift.o
 .data          0x00000000        0x0 build/../../libmaple/wirish/wirish_shift.o
 .bss           0x00000000        0x0 build/../../libmaple/wirish/wirish_shift.o
 .text._Z8shiftOuthhhh
                0x00000000       0x42 build/../../libmaple/wirish/wirish_shift.o
 .text          0x00000000        0x0 build/../../libmaple/wirish/wirish_analog.o
 .data          0x00000000        0x0 build/../../libmaple/wirish/wirish_analog.o
 .bss           0x00000000        0x0 build/../../libmaple/wirish/wirish_analog.o
 .text._Z10analogReadh
                0x00000000       0x1c build/../../libmaple/wirish/wirish_analog.o
 .text          0x00000000        0x0 build/../../libmaple/wirish/wirish_time.o
 .data          0x00000000        0x0 build/../../libmaple/wirish/wirish_time.o
 .bss           0x00000000        0x0 build/../../libmaple/wirish/wirish_time.o
 .text._Z17delayMicrosecondsj
                0x00000000        0xe build/../../libmaple/wirish/wirish_time.o
 .text._Z5delaym
                0x00000000       0x18 build/../../libmaple/wirish/wirish_time.o
 .text          0x00000000        0x0 build/../../libmaple/wirish/pwm.o
 .data          0x00000000        0x0 build/../../libmaple/wirish/pwm.o
 .bss           0x00000000        0x0 build/../../libmaple/wirish/pwm.o
 .text          0x00000000        0x0 build/../../libmaple/wirish/ext_interrupts.o
 .data          0x00000000        0x0 build/../../libmaple/wirish/ext_interrupts.o
 .bss           0x00000000        0x0 build/../../libmaple/wirish/ext_interrupts.o
 .text._Z15detachInterrupth
                0x00000000       0x18 build/../../libmaple/wirish/ext_interrupts.o
 .text._Z15attachInterrupthPFvvE17ExtIntTriggerMode
                0x00000000       0x4c build/../../libmaple/wirish/ext_interrupts.o
 .rodata.str1.1
                0x00000000       0x2b build/../../libmaple/wirish/ext_interrupts.o
 .text          0x00000000        0x0 build/../../libmaple/wirish/wirish_digital.o
 .data          0x00000000        0x0 build/../../libmaple/wirish/wirish_digital.o
 .bss           0x00000000        0x0 build/../../libmaple/wirish/wirish_digital.o
 .text._Z11digitalReadh
                0x00000000       0x2c build/../../libmaple/wirish/wirish_digital.o
 .text._Z9togglePinh
                0x00000000       0x24 build/../../libmaple/wirish/wirish_digital.o
 .text._Z15isButtonPressedv
                0x00000000       0x20 build/../../libmaple/wirish/wirish_digital.o
 .text._Z18waitForButtonPressj
                0x00000000       0x40 build/../../libmaple/wirish/wirish_digital.o
 .group         0x00000000        0x8 build/../../libmaple/libraries/Servo/Servo.o
 .text          0x00000000        0x0 build/../../libmaple/libraries/Servo/Servo.o
 .data          0x00000000        0x0 build/../../libmaple/libraries/Servo/Servo.o
 .bss           0x00000000        0x0 build/../../libmaple/libraries/Servo/Servo.o
 .text._ZNK5Servo8attachedEv
                0x00000000        0xe build/../../libmaple/libraries/Servo/Servo.o
 .text._ZL3maplllll
                0x00000000       0x1a build/../../libmaple/libraries/Servo/Servo.o
 .text._ZN5Servo11resetFieldsEv
                0x00000000       0x20 build/../../libmaple/libraries/Servo/Servo.o
 .text._ZN5ServoC1Ev
                0x00000000        0xc build/../../libmaple/libraries/Servo/Servo.o
 .text._ZN5ServoC2Ev
                0x00000000        0xc build/../../libmaple/libraries/Servo/Servo.o
 .text._ZNK5Servo16readMicrosecondsEv
                0x00000000       0x68 build/../../libmaple/libraries/Servo/Servo.o
 .text._ZNK5Servo4readEv
                0x00000000       0x2a build/../../libmaple/libraries/Servo/Servo.o
 .text._ZN5Servo17writeMicrosecondsEt
                0x00000000       0x54 build/../../libmaple/libraries/Servo/Servo.o
 .text._ZN5Servo5writeEi
                0x00000000       0x38 build/../../libmaple/libraries/Servo/Servo.o
 .text._ZN5Servo6detachEv
                0x00000000       0x30 build/../../libmaple/libraries/Servo/Servo.o
 .text.T.15     0x00000000        0x8 build/../../libmaple/libraries/Servo/Servo.o
 .text._ZN5Servo6attachEhttss
                0x00000000       0x78 build/../../libmaple/libraries/Servo/Servo.o
 .rodata.str1.1
                0x00000000       0x2b build/../../libmaple/libraries/Servo/Servo.o
 .group         0x00000000        0x8 build/../../libmaple/libraries/LiquidCrystal/LiquidCrystal.o
 .group         0x00000000        0x8 build/../../libmaple/libraries/LiquidCrystal/LiquidCrystal.o
 .group         0x00000000        0x8 build/../../libmaple/libraries/LiquidCrystal/LiquidCrystal.o
 .group         0x00000000        0x8 build/../../libmaple/libraries/LiquidCrystal/LiquidCrystal.o
 .text          0x00000000        0x0 build/../../libmaple/libraries/LiquidCrystal/LiquidCrystal.o
 .data          0x00000000        0x0 build/../../libmaple/libraries/LiquidCrystal/LiquidCrystal.o
 .bss           0x00000000        0x0 build/../../libmaple/libraries/LiquidCrystal/LiquidCrystal.o
 .text._ZN5PrintC2Ev
                0x00000000        0xc build/../../libmaple/libraries/LiquidCrystal/LiquidCrystal.o
 .text._ZN13LiquidCrystal11pulseEnableEv
                0x00000000       0x2e build/../../libmaple/libraries/LiquidCrystal/LiquidCrystal.o
 .text._ZN13LiquidCrystal10write8bitsEh
                0x00000000       0x28 build/../../libmaple/libraries/LiquidCrystal/LiquidCrystal.o
 .text._ZN13LiquidCrystal10write4bitsEh
                0x00000000       0x28 build/../../libmaple/libraries/LiquidCrystal/LiquidCrystal.o
 .text._ZN13LiquidCrystal4sendEhh
                0x00000000       0x40 build/../../libmaple/libraries/LiquidCrystal/LiquidCrystal.o
 .text._ZN13LiquidCrystal7commandEh
                0x00000000        0x6 build/../../libmaple/libraries/LiquidCrystal/LiquidCrystal.o
 .text._ZN13LiquidCrystal10createCharEhPh
                0x00000000       0x28 build/../../libmaple/libraries/LiquidCrystal/LiquidCrystal.o
 .text._ZN13LiquidCrystal12noAutoscrollEv
                0x00000000       0x10 build/../../libmaple/libraries/LiquidCrystal/LiquidCrystal.o
 .text._ZN13LiquidCrystal10autoscrollEv
                0x00000000       0x10 build/../../libmaple/libraries/LiquidCrystal/LiquidCrystal.o
 .text._ZN13LiquidCrystal11rightToLeftEv
                0x00000000       0x10 build/../../libmaple/libraries/LiquidCrystal/LiquidCrystal.o
 .text._ZN13LiquidCrystal11leftToRightEv
                0x00000000       0x10 build/../../libmaple/libraries/LiquidCrystal/LiquidCrystal.o
 .text._ZN13LiquidCrystal18scrollDisplayRightEv
                0x00000000        0x6 build/../../libmaple/libraries/LiquidCrystal/LiquidCrystal.o
 .text._ZN13LiquidCrystal17scrollDisplayLeftEv
                0x00000000        0x6 build/../../libmaple/libraries/LiquidCrystal/LiquidCrystal.o
 .text._ZN13LiquidCrystal5blinkEv
                0x00000000       0x10 build/../../libmaple/libraries/LiquidCrystal/LiquidCrystal.o
 .text._ZN13LiquidCrystal7noBlinkEv
                0x00000000       0x10 build/../../libmaple/libraries/LiquidCrystal/LiquidCrystal.o
 .text._ZN13LiquidCrystal6cursorEv
                0x00000000       0x10 build/../../libmaple/libraries/LiquidCrystal/LiquidCrystal.o
 .text._ZN13LiquidCrystal8noCursorEv
                0x00000000       0x10 build/../../libmaple/libraries/LiquidCrystal/LiquidCrystal.o
 .text._ZN13LiquidCrystal7displayEv
                0x00000000       0x10 build/../../libmaple/libraries/LiquidCrystal/LiquidCrystal.o
 .text._ZN13LiquidCrystal9noDisplayEv
                0x00000000       0x10 build/../../libmaple/libraries/LiquidCrystal/LiquidCrystal.o
 .text._ZN13LiquidCrystal9setCursorEhh
                0x00000000       0x44 build/../../libmaple/libraries/LiquidCrystal/LiquidCrystal.o
 .text._ZN13LiquidCrystal5writeEh
                0x00000000        0x6 build/../../libmaple/libraries/LiquidCrystal/LiquidCrystal.o
 .text._ZN13LiquidCrystal4homeEv
                0x00000000       0x12 build/../../libmaple/libraries/LiquidCrystal/LiquidCrystal.o
 .text._ZN13LiquidCrystal5clearEv
                0x00000000       0x12 build/../../libmaple/libraries/LiquidCrystal/LiquidCrystal.o
 .text._ZN13LiquidCrystal5beginEhhh
                0x00000000       0xda build/../../libmaple/libraries/LiquidCrystal/LiquidCrystal.o
 .text._ZN13LiquidCrystal4initEhhhhhhhhhhhh
                0x00000000       0x9c build/../../libmaple/libraries/LiquidCrystal/LiquidCrystal.o
 .text._ZN13LiquidCrystalC1Ehhhhhh
                0x00000000       0x54 build/../../libmaple/libraries/LiquidCrystal/LiquidCrystal.o
 .text._ZN13LiquidCrystalC2Ehhhhhh
                0x00000000       0x54 build/../../libmaple/libraries/LiquidCrystal/LiquidCrystal.o
 .text._ZN13LiquidCrystalC1Ehhhhhhh
                0x00000000       0x5c build/../../libmaple/libraries/LiquidCrystal/LiquidCrystal.o
 .text._ZN13LiquidCrystalC2Ehhhhhhh
                0x00000000       0x5c build/../../libmaple/libraries/LiquidCrystal/LiquidCrystal.o
 .text._ZN13LiquidCrystalC1Ehhhhhhhhhh
                0x00000000       0x70 build/../../libmaple/libraries/LiquidCrystal/LiquidCrystal.o
 .text._ZN13LiquidCrystalC2Ehhhhhhhhhh
                0x00000000       0x70 build/../../libmaple/libraries/LiquidCrystal/LiquidCrystal.o
 .text._ZN13LiquidCrystalC1Ehhhhhhhhhhh
                0x00000000       0x74 build/../../libmaple/libraries/LiquidCrystal/LiquidCrystal.o
 .text._ZN13LiquidCrystalC2Ehhhhhhhhhhh
                0x00000000       0x74 build/../../libmaple/libraries/LiquidCrystal/LiquidCrystal.o
 .rodata._ZTV13LiquidCrystal
                0x00000000       0x18 build/../../libmaple/libraries/LiquidCrystal/LiquidCrystal.o
 .rodata._ZZN13LiquidCrystal9setCursorEhhE4C.17
                0x00000000       0x10 build/../../libmaple/libraries/LiquidCrystal/LiquidCrystal.o
 .text          0x00000000        0x0 build/../../libmaple/libraries/Wire/Wire.o
 .data          0x00000000        0x0 build/../../libmaple/libraries/Wire/Wire.o
 .bss           0x00000000        0x0 build/../../libmaple/libraries/Wire/Wire.o
 .text._ZN7TwoWireC2Ev
                0x00000000       0x20 build/../../libmaple/libraries/Wire/Wire.o
 .text._ZN7TwoWire17beginTransmissionEh
                0x00000000       0x18 build/../../libmaple/libraries/Wire/Wire.o
 .text._ZN7TwoWire17beginTransmissionEi
                0x00000000        0x6 build/../../libmaple/libraries/Wire/Wire.o
 .text._ZN7TwoWire4sendEh
                0x00000000       0x1e build/../../libmaple/libraries/Wire/Wire.o
 .text._ZN7TwoWire4sendEPhi
                0x00000000       0x1e build/../../libmaple/libraries/Wire/Wire.o
 .text._ZN7TwoWire4sendEi
                0x00000000        0x6 build/../../libmaple/libraries/Wire/Wire.o
 .text._ZN7TwoWire4sendEPii
                0x00000000        0x6 build/../../libmaple/libraries/Wire/Wire.o
 .text._ZN7TwoWire4sendEPc
                0x00000000       0x1a build/../../libmaple/libraries/Wire/Wire.o
 .text._ZN7TwoWire9availableEv
                0x00000000        0xe build/../../libmaple/libraries/Wire/Wire.o
 .text._ZN7TwoWire7receiveEv
                0x00000000       0x1c build/../../libmaple/libraries/Wire/Wire.o
 .text._ZN7TwoWire5beginEhh
                0x00000000       0x32 build/../../libmaple/libraries/Wire/Wire.o
 .text._ZN7TwoWire5beginEv
                0x00000000        0x8 build/../../libmaple/libraries/Wire/Wire.o
 .text._Z13i2c_shift_out4Porth
                0x00000000       0x56 build/../../libmaple/libraries/Wire/Wire.o
 .text._Z13i2c_send_nack4Port
                0x00000000       0x36 build/../../libmaple/libraries/Wire/Wire.o
 .text._Z12i2c_send_ack4Port
                0x00000000       0x48 build/../../libmaple/libraries/Wire/Wire.o
 .text._Z8i2c_stop4Port
                0x00000000       0x34 build/../../libmaple/libraries/Wire/Wire.o
 .text._Z9i2c_start4Port
                0x00000000       0x36 build/../../libmaple/libraries/Wire/Wire.o
 .text._Z12i2c_shift_in4Port
                0x00000000       0x56 build/../../libmaple/libraries/Wire/Wire.o
 .text._Z11i2c_get_ack4Port
                0x00000000       0x80 build/../../libmaple/libraries/Wire/Wire.o
 .text._ZN7TwoWire11readOneByteEhPh
                0x00000000       0x7c build/../../libmaple/libraries/Wire/Wire.o
 .text._ZN7TwoWire11requestFromEhi
                0x00000000       0x3a build/../../libmaple/libraries/Wire/Wire.o
 .text._ZN7TwoWire11requestFromEii
                0x00000000        0x8 build/../../libmaple/libraries/Wire/Wire.o
 .text._ZN7TwoWire12writeOneByteEh
                0x00000000       0x2e build/../../libmaple/libraries/Wire/Wire.o
 .text._ZN7TwoWire15endTransmissionEv
                0x00000000       0x88 build/../../libmaple/libraries/Wire/Wire.o
 .text          0x00000000        0x0 build/../../libmaple/libraries/FreeRTOS/utility/croutine.o
 .data          0x00000000        0x0 build/../../libmaple/libraries/FreeRTOS/utility/croutine.o
 .bss           0x00000000        0x0 build/../../libmaple/libraries/FreeRTOS/utility/croutine.o
 .text.xCoRoutineRemoveFromEventList
                0x00000000       0x34 build/../../libmaple/libraries/FreeRTOS/utility/croutine.o
 .text.vCoRoutineSchedule
                0x00000000      0x148 build/../../libmaple/libraries/FreeRTOS/utility/croutine.o
 .text.vCoRoutineAddToDelayedList
                0x00000000       0x54 build/../../libmaple/libraries/FreeRTOS/utility/croutine.o
 .text.xCoRoutineCreate
                0x00000000       0xc4 build/../../libmaple/libraries/FreeRTOS/utility/croutine.o
 .bss.xDelayedCoRoutineList1
                0x00000000       0x14 build/../../libmaple/libraries/FreeRTOS/utility/croutine.o
 .bss.xPassedTicks
                0x00000000        0x4 build/../../libmaple/libraries/FreeRTOS/utility/croutine.o
 .bss.xPendingReadyCoRoutineList
                0x00000000       0x14 build/../../libmaple/libraries/FreeRTOS/utility/croutine.o
 .bss.pxCurrentCoRoutine
                0x00000000        0x4 build/../../libmaple/libraries/FreeRTOS/utility/croutine.o
 .bss.xDelayedCoRoutineList2
                0x00000000       0x14 build/../../libmaple/libraries/FreeRTOS/utility/croutine.o
 .bss.xCoRoutineTickCount
                0x00000000        0x4 build/../../libmaple/libraries/FreeRTOS/utility/croutine.o
 .bss.xLastTickCount
                0x00000000        0x4 build/../../libmaple/libraries/FreeRTOS/utility/croutine.o
 .bss.pxDelayedCoRoutineList
                0x00000000        0x4 build/../../libmaple/libraries/FreeRTOS/utility/croutine.o
 .bss.pxReadyCoRoutineLists
                0x00000000       0x28 build/../../libmaple/libraries/FreeRTOS/utility/croutine.o
 .bss.uxTopCoRoutineReadyPriority
                0x00000000        0x4 build/../../libmaple/libraries/FreeRTOS/utility/croutine.o
 .bss.pxOverflowDelayedCoRoutineList
                0x00000000        0x4 build/../../libmaple/libraries/FreeRTOS/utility/croutine.o
 .text          0x00000000        0x0 build/../../libmaple/libraries/FreeRTOS/utility/heap_2.o
 .data          0x00000000        0x0 build/../../libmaple/libraries/FreeRTOS/utility/heap_2.o
 .bss           0x00000000        0x0 build/../../libmaple/libraries/FreeRTOS/utility/heap_2.o
 .text.xPortGetFreeHeapSize
                0x00000000        0xc build/../../libmaple/libraries/FreeRTOS/utility/heap_2.o
 .text.vPortInitialiseBlocks
                0x00000000        0x2 build/../../libmaple/libraries/FreeRTOS/utility/heap_2.o
 .text.vPortFree
                0x00000000       0x40 build/../../libmaple/libraries/FreeRTOS/utility/heap_2.o
 .text.pvPortMalloc
                0x00000000       0xb0 build/../../libmaple/libraries/FreeRTOS/utility/heap_2.o
 .bss.xHeap     0x00000000     0x2000 build/../../libmaple/libraries/FreeRTOS/utility/heap_2.o
 .bss.xStart    0x00000000        0x8 build/../../libmaple/libraries/FreeRTOS/utility/heap_2.o
 .data.xFreeBytesRemaining
                0x00000000        0x4 build/../../libmaple/libraries/FreeRTOS/utility/heap_2.o
 .bss.xEnd      0x00000000        0x8 build/../../libmaple/libraries/FreeRTOS/utility/heap_2.o
 .bss.xHeapHasBeenInitialised.1974
                0x00000000        0x4 build/../../libmaple/libraries/FreeRTOS/utility/heap_2.o
 .text          0x00000000        0x0 build/../../libmaple/libraries/FreeRTOS/utility/list.o
 .data          0x00000000        0x0 build/../../libmaple/libraries/FreeRTOS/utility/list.o
 .bss           0x00000000        0x0 build/../../libmaple/libraries/FreeRTOS/utility/list.o
 .text.vListInitialise
                0x00000000       0x16 build/../../libmaple/libraries/FreeRTOS/utility/list.o
 .text.vListInitialiseItem
                0x00000000        0x6 build/../../libmaple/libraries/FreeRTOS/utility/list.o
 .text.vListInsertEnd
                0x00000000       0x1a build/../../libmaple/libraries/FreeRTOS/utility/list.o
 .text.vListInsert
                0x00000000       0x32 build/../../libmaple/libraries/FreeRTOS/utility/list.o
 .text.vListRemove
                0x00000000       0x20 build/../../libmaple/libraries/FreeRTOS/utility/list.o
 .text          0x00000000        0x0 build/../../libmaple/libraries/FreeRTOS/utility/port.o
 .data          0x00000000        0x0 build/../../libmaple/libraries/FreeRTOS/utility/port.o
 .bss           0x00000000        0x0 build/../../libmaple/libraries/FreeRTOS/utility/port.o
 .text.pxPortInitialiseStack
                0x00000000       0x20 build/../../libmaple/libraries/FreeRTOS/utility/port.o
 .text.vPortStartFirstTask
                0x00000000       0x14 build/../../libmaple/libraries/FreeRTOS/utility/port.o
 .text.vPortEndScheduler
                0x00000000        0x2 build/../../libmaple/libraries/FreeRTOS/utility/port.o
 .text.vPortYieldFromISR
                0x00000000       0x10 build/../../libmaple/libraries/FreeRTOS/utility/port.o
 .text.vPortEnterCritical
                0x00000000       0x18 build/../../libmaple/libraries/FreeRTOS/utility/port.o
 .text.vPortExitCritical
                0x00000000       0x18 build/../../libmaple/libraries/FreeRTOS/utility/port.o
 .text.xPortSysTickHandler
                0x00000000       0x24 build/../../libmaple/libraries/FreeRTOS/utility/port.o
 .text.xPortStartScheduler
                0x00000000       0x34 build/../../libmaple/libraries/FreeRTOS/utility/port.o
 .rodata.ulKernelPriority
                0x00000000        0x4 build/../../libmaple/libraries/FreeRTOS/utility/port.o
 .data.uxCriticalNesting
                0x00000000        0x4 build/../../libmaple/libraries/FreeRTOS/utility/port.o
 .text          0x00000000        0x0 build/../../libmaple/libraries/FreeRTOS/utility/queue.o
 .data          0x00000000        0x0 build/../../libmaple/libraries/FreeRTOS/utility/queue.o
 .bss           0x00000000        0x0 build/../../libmaple/libraries/FreeRTOS/utility/queue.o
 .text.uxQueueMessagesWaitingFromISR
                0x00000000        0x4 build/../../libmaple/libraries/FreeRTOS/utility/queue.o
 .text.xQueueIsQueueEmptyFromISR
                0x00000000        0xc build/../../libmaple/libraries/FreeRTOS/utility/queue.o
 .text.xQueueIsQueueFullFromISR
                0x00000000        0xe build/../../libmaple/libraries/FreeRTOS/utility/queue.o
 .text.vQueueDelete
                0x00000000       0x14 build/../../libmaple/libraries/FreeRTOS/utility/queue.o
 .text.uxQueueMessagesWaiting
                0x00000000       0x12 build/../../libmaple/libraries/FreeRTOS/utility/queue.o
 .text.prvCopyDataFromQueue
                0x00000000       0x28 build/../../libmaple/libraries/FreeRTOS/utility/queue.o
 .text.xQueueReceiveFromISR
                0x00000000       0x4c build/../../libmaple/libraries/FreeRTOS/utility/queue.o
 .text.prvUnlockQueue
                0x00000000       0x68 build/../../libmaple/libraries/FreeRTOS/utility/queue.o
 .text.xQueueGenericReceive
                0x00000000      0x112 build/../../libmaple/libraries/FreeRTOS/utility/queue.o
 .text.xQueueTakeMutexRecursive
                0x00000000       0x32 build/../../libmaple/libraries/FreeRTOS/utility/queue.o
 .text.prvCopyDataToQueue
                0x00000000       0x58 build/../../libmaple/libraries/FreeRTOS/utility/queue.o
 .text.xQueueGenericSendFromISR
                0x00000000       0x50 build/../../libmaple/libraries/FreeRTOS/utility/queue.o
 .text.xQueueGenericSend
                0x00000000       0xec build/../../libmaple/libraries/FreeRTOS/utility/queue.o
 .text.xQueueGiveMutexRecursive
                0x00000000       0x2c build/../../libmaple/libraries/FreeRTOS/utility/queue.o
 .text.xQueueCreateMutex
                0x00000000       0x42 build/../../libmaple/libraries/FreeRTOS/utility/queue.o
 .text.xQueueCreate
                0x00000000       0x70 build/../../libmaple/libraries/FreeRTOS/utility/queue.o
 .text.xQueueCreateCountingSemaphore
                0x00000000       0x14 build/../../libmaple/libraries/FreeRTOS/utility/queue.o
 .text          0x00000000        0x0 build/../../libmaple/libraries/FreeRTOS/utility/timers.o
 .data          0x00000000        0x0 build/../../libmaple/libraries/FreeRTOS/utility/timers.o
 .bss           0x00000000        0x0 build/../../libmaple/libraries/FreeRTOS/utility/timers.o
 .text          0x00000000        0x0 build/../../libmaple/libraries/FreeRTOS/utility/tasks.o
 .data          0x00000000        0x0 build/../../libmaple/libraries/FreeRTOS/utility/tasks.o
 .bss           0x00000000        0x0 build/../../libmaple/libraries/FreeRTOS/utility/tasks.o
 .text.xTaskIsTaskSuspended
                0x00000000       0x28 build/../../libmaple/libraries/FreeRTOS/utility/tasks.o
 .text.vTaskSuspendAll
                0x00000000       0x10 build/../../libmaple/libraries/FreeRTOS/utility/tasks.o
 .text.xTaskGetTickCountFromISR
                0x00000000       0x1c build/../../libmaple/libraries/FreeRTOS/utility/tasks.o
 .text.uxTaskGetNumberOfTasks
                0x00000000        0xc build/../../libmaple/libraries/FreeRTOS/utility/tasks.o
 .text.vTaskSetTimeOutState
                0x00000000       0x18 build/../../libmaple/libraries/FreeRTOS/utility/tasks.o
 .text.vTaskMissedYield
                0x00000000        0xc build/../../libmaple/libraries/FreeRTOS/utility/tasks.o
 .text.xTaskGetCurrentTaskHandle
                0x00000000        0xc build/../../libmaple/libraries/FreeRTOS/utility/tasks.o
 .text.vTaskPriorityDisinherit
                0x00000000       0x48 build/../../libmaple/libraries/FreeRTOS/utility/tasks.o
 .text.vTaskPriorityInherit
                0x00000000       0x68 build/../../libmaple/libraries/FreeRTOS/utility/tasks.o
 .text.xTaskRemoveFromEventList
                0x00000000       0x64 build/../../libmaple/libraries/FreeRTOS/utility/tasks.o
 .text.vTaskIncrementTick
                0x00000000       0xd4 build/../../libmaple/libraries/FreeRTOS/utility/tasks.o
 .text.xTaskResumeFromISR
                0x00000000       0x6c build/../../libmaple/libraries/FreeRTOS/utility/tasks.o
 .text.xTaskCheckForTimeOut
                0x00000000       0x58 build/../../libmaple/libraries/FreeRTOS/utility/tasks.o
 .text.ulTaskEndTrace
                0x00000000       0x28 build/../../libmaple/libraries/FreeRTOS/utility/tasks.o
 .text.vTaskStartTrace
                0x00000000       0x3c build/../../libmaple/libraries/FreeRTOS/utility/tasks.o
 .text.xTaskGetTickCount
                0x00000000       0x18 build/../../libmaple/libraries/FreeRTOS/utility/tasks.o
 .text.uxTaskPriorityGet
                0x00000000       0x1c build/../../libmaple/libraries/FreeRTOS/utility/tasks.o
 .text.prvAddCurrentTaskToDelayedList
                0x00000000       0x50 build/../../libmaple/libraries/FreeRTOS/utility/tasks.o
 .text.vTaskPlaceOnEventList
                0x00000000       0x44 build/../../libmaple/libraries/FreeRTOS/utility/tasks.o
 .text.prvListTaskWithinSingleList
                0x00000000       0x7c build/../../libmaple/libraries/FreeRTOS/utility/tasks.o
 .text.xTaskResumeAll
                0x00000000       0xc0 build/../../libmaple/libraries/FreeRTOS/utility/tasks.o
 .text.vTaskList
                0x00000000       0x9c build/../../libmaple/libraries/FreeRTOS/utility/tasks.o
 .text.vTaskResume
                0x00000000       0x68 build/../../libmaple/libraries/FreeRTOS/utility/tasks.o
 .text.vTaskSuspend
                0x00000000       0x7c build/../../libmaple/libraries/FreeRTOS/utility/tasks.o
 .text.vTaskPrioritySet
                0x00000000       0x98 build/../../libmaple/libraries/FreeRTOS/utility/tasks.o
 .text.vTaskDelay
                0x00000000       0x38 build/../../libmaple/libraries/FreeRTOS/utility/tasks.o
 .text.vTaskDelayUntil
                0x00000000       0x5c build/../../libmaple/libraries/FreeRTOS/utility/tasks.o
 .text.vTaskDelete
                0x00000000       0x74 build/../../libmaple/libraries/FreeRTOS/utility/tasks.o
 .text.vTaskEndScheduler
                0x00000000       0x18 build/../../libmaple/libraries/FreeRTOS/utility/tasks.o
 .text.prvIdleTask
                0x00000000       0x60 build/../../libmaple/libraries/FreeRTOS/utility/tasks.o
 .text.xTaskGenericCreate
                0x00000000      0x1b0 build/../../libmaple/libraries/FreeRTOS/utility/tasks.o
 .text.vTaskStartScheduler
                0x00000000       0x4c build/../../libmaple/libraries/FreeRTOS/utility/tasks.o
 .bss.xPendingReadyList
                0x00000000       0x14 build/../../libmaple/libraries/FreeRTOS/utility/tasks.o
 .bss.uxTasksDeleted
                0x00000000        0x4 build/../../libmaple/libraries/FreeRTOS/utility/tasks.o
 .bss.pxOverflowDelayedTaskList
                0x00000000        0x4 build/../../libmaple/libraries/FreeRTOS/utility/tasks.o
 .bss.xTasksWaitingTermination
                0x00000000       0x14 build/../../libmaple/libraries/FreeRTOS/utility/tasks.o
 .bss.pxDelayedTaskList
                0x00000000        0x4 build/../../libmaple/libraries/FreeRTOS/utility/tasks.o
 .data.xNextTaskUnblockTime
                0x00000000        0x4 build/../../libmaple/libraries/FreeRTOS/utility/tasks.o
 .bss.xSchedulerRunning
                0x00000000        0x4 build/../../libmaple/libraries/FreeRTOS/utility/tasks.o
 .rodata.str1.1
                0x00000000       0x1a build/../../libmaple/libraries/FreeRTOS/utility/tasks.o
 .bss.pcStatusString
                0x00000000       0x34 build/../../libmaple/libraries/FreeRTOS/utility/tasks.o
 .bss.xSuspendedTaskList
                0x00000000       0x14 build/../../libmaple/libraries/FreeRTOS/utility/tasks.o
 .bss.uxCurrentNumberOfTasks
                0x00000000        0x4 build/../../libmaple/libraries/FreeRTOS/utility/tasks.o
 .bss.xDelayedTaskList1
                0x00000000       0x14 build/../../libmaple/libraries/FreeRTOS/utility/tasks.o
 .bss.xDelayedTaskList2
                0x00000000       0x14 build/../../libmaple/libraries/FreeRTOS/utility/tasks.o
 .bss.uxTaskNumber
                0x00000000        0x4 build/../../libmaple/libraries/FreeRTOS/utility/tasks.o
 .bss.uxMissedTicks
                0x00000000        0x4 build/../../libmaple/libraries/FreeRTOS/utility/tasks.o
 .bss.pcTraceBufferStart
                0x00000000        0x4 build/../../libmaple/libraries/FreeRTOS/utility/tasks.o
 .bss.xNumOfOverflows
                0x00000000        0x4 build/../../libmaple/libraries/FreeRTOS/utility/tasks.o
 .bss.uxTopUsedPriority
                0x00000000        0x4 build/../../libmaple/libraries/FreeRTOS/utility/tasks.o
 .text          0x00000000        0x0 build/../../libmaple/libraries/FreeRTOS/MapleFreeRTOS.o
 .data          0x00000000        0x0 build/../../libmaple/libraries/FreeRTOS/MapleFreeRTOS.o
 .bss           0x00000000        0x0 build/../../libmaple/libraries/FreeRTOS/MapleFreeRTOS.o
 .text          0x00000000        0x0 build/IO.o
 .data          0x00000000        0x0 build/IO.o
 .bss           0x00000000        0x0 build/IO.o
 .group         0x00000000        0x8 build/Infrareds.o
 .text          0x00000000        0x0 build/Infrareds.o
 .data          0x00000000        0x0 build/Infrareds.o
 .bss           0x00000000        0x0 build/Infrareds.o
 .text._Z19setIROverSampleRatei
                0x00000000        0xc build/Infrareds.o
 .text._Z16isValidLeftFrontv
                0x00000000       0x1c build/Infrareds.o
 .text._Z15isValidLeftRearv
                0x00000000       0x1c build/Infrareds.o
 .text._Z16isValidFrontLeftv
                0x00000000       0x1c build/Infrareds.o
 .text._Z17isValidFrontRightv
                0x00000000       0x1c build/Infrareds.o
 .text._Z17isValidRightFrontv
                0x00000000       0x1c build/Infrareds.o
 .text._Z16isValidRightRearv
                0x00000000       0x1c build/Infrareds.o
 .text._Z19getRightRearIRRangev
                0x00000000       0x10 build/Infrareds.o
 .text._Z18getLeftRearIRRangev
                0x00000000       0x10 build/Infrareds.o
 .text          0x00000000        0x0 build/Sensors.o
 .data          0x00000000        0x0 build/Sensors.o
 .bss           0x00000000        0x0 build/Sensors.o
 .text          0x00000000        0x0 build/Ultrasonics.o
 .data          0x00000000        0x0 build/Ultrasonics.o
 .bss           0x00000000        0x0 build/Ultrasonics.o
 .text._Z27setUltrasonicOversampleRatei
                0x00000000        0xc build/Ultrasonics.o
 .text          0x00000000        0x0 build/main.o
 .data          0x00000000        0x0 build/main.o
 .bss           0x00000000        0x0 build/main.o
 .text._Z21turn_90_degrees_rightv
                0x00000000        0x2 build/main.o
 .text._Z16turn_180_degreesv
                0x00000000        0x2 build/main.o
 .text._Z20turn_90_degrees_leftv
                0x00000000        0x2 build/main.o
 .text._Z13turn_straightv
                0x00000000        0x2 build/main.o
 .text._Z25isFinishedWithLastCommandv
                0x00000000        0x2 build/main.o
 .text._Z9solveMazev
                0x00000000        0x4 build/main.o
 .text          0x00000000        0x0 build/DriveControl.o
 .data          0x00000000        0x0 build/DriveControl.o
 .bss           0x00000000        0x0 build/DriveControl.o
 .text._Z13setRightMotorss
                0x00000000       0x44 build/DriveControl.o
 .text._Z12setLeftMotorss
                0x00000000       0x44 build/DriveControl.o
 .text._Z12setLeftRightssss
                0x00000000       0x16 build/DriveControl.o
 .bss.rightPWMOut
                0x00000000        0x2 build/DriveControl.o
 .bss.rightForward
                0x00000000        0x2 build/DriveControl.o
 .bss.leftPWMOut
                0x00000000        0x2 build/DriveControl.o
 .bss.leftForward
                0x00000000        0x2 build/DriveControl.o
 .text          0x00000000        0x0 build/MiceSensors.o
 .data          0x00000000        0x0 build/MiceSensors.o
 .bss           0x00000000        0x0 build/MiceSensors.o
 .text          0x00000000      0x370 /Users/alexanderryan/Programming/SmartMouse/MapleCode/arm/bin/../lib/gcc/arm-none-eabi/4.4.1/thumb2/libgcc.a(_arm_addsubdf3.o)
 .data          0x00000000        0x0 /Users/alexanderryan/Programming/SmartMouse/MapleCode/arm/bin/../lib/gcc/arm-none-eabi/4.4.1/thumb2/libgcc.a(_arm_addsubdf3.o)
 .bss           0x00000000        0x0 /Users/alexanderryan/Programming/SmartMouse/MapleCode/arm/bin/../lib/gcc/arm-none-eabi/4.4.1/thumb2/libgcc.a(_arm_addsubdf3.o)
 .text          0x00000000      0x424 /Users/alexanderryan/Programming/SmartMouse/MapleCode/arm/bin/../lib/gcc/arm-none-eabi/4.4.1/thumb2/libgcc.a(_arm_muldivdf3.o)
 .data          0x00000000        0x0 /Users/alexanderryan/Programming/SmartMouse/MapleCode/arm/bin/../lib/gcc/arm-none-eabi/4.4.1/thumb2/libgcc.a(_arm_muldivdf3.o)
 .bss           0x00000000        0x0 /Users/alexanderryan/Programming/SmartMouse/MapleCode/arm/bin/../lib/gcc/arm-none-eabi/4.4.1/thumb2/libgcc.a(_arm_muldivdf3.o)
 .text          0x00000000      0x110 /Users/alexanderryan/Programming/SmartMouse/MapleCode/arm/bin/../lib/gcc/arm-none-eabi/4.4.1/thumb2/libgcc.a(_arm_cmpdf2.o)
 .data          0x00000000        0x0 /Users/alexanderryan/Programming/SmartMouse/MapleCode/arm/bin/../lib/gcc/arm-none-eabi/4.4.1/thumb2/libgcc.a(_arm_cmpdf2.o)
 .bss           0x00000000        0x0 /Users/alexanderryan/Programming/SmartMouse/MapleCode/arm/bin/../lib/gcc/arm-none-eabi/4.4.1/thumb2/libgcc.a(_arm_cmpdf2.o)
 .text          0x00000000       0x50 /Users/alexanderryan/Programming/SmartMouse/MapleCode/arm/bin/../lib/gcc/arm-none-eabi/4.4.1/thumb2/libgcc.a(_arm_fixdfsi.o)
 .data          0x00000000        0x0 /Users/alexanderryan/Programming/SmartMouse/MapleCode/arm/bin/../lib/gcc/arm-none-eabi/4.4.1/thumb2/libgcc.a(_arm_fixdfsi.o)
 .bss           0x00000000        0x0 /Users/alexanderryan/Programming/SmartMouse/MapleCode/arm/bin/../lib/gcc/arm-none-eabi/4.4.1/thumb2/libgcc.a(_arm_fixdfsi.o)
 .data          0x00000000        0x0 /Users/alexanderryan/Programming/SmartMouse/MapleCode/arm/bin/../lib/gcc/arm-none-eabi/4.4.1/thumb2/libgcc.a(_aeabi_uldivmod.o)
 .bss           0x00000000        0x0 /Users/alexanderryan/Programming/SmartMouse/MapleCode/arm/bin/../lib/gcc/arm-none-eabi/4.4.1/thumb2/libgcc.a(_aeabi_uldivmod.o)
 .text          0x00000000       0x3c /Users/alexanderryan/Programming/SmartMouse/MapleCode/arm/bin/../lib/gcc/arm-none-eabi/4.4.1/thumb2/libgcc.a(_fixdfdi.o)
 .data          0x00000000        0x0 /Users/alexanderryan/Programming/SmartMouse/MapleCode/arm/bin/../lib/gcc/arm-none-eabi/4.4.1/thumb2/libgcc.a(_fixdfdi.o)
 .bss           0x00000000        0x0 /Users/alexanderryan/Programming/SmartMouse/MapleCode/arm/bin/../lib/gcc/arm-none-eabi/4.4.1/thumb2/libgcc.a(_fixdfdi.o)
 .text          0x00000000       0x44 /Users/alexanderryan/Programming/SmartMouse/MapleCode/arm/bin/../lib/gcc/arm-none-eabi/4.4.1/thumb2/libgcc.a(_fixunsdfdi.o)
 .data          0x00000000        0x0 /Users/alexanderryan/Programming/SmartMouse/MapleCode/arm/bin/../lib/gcc/arm-none-eabi/4.4.1/thumb2/libgcc.a(_fixunsdfdi.o)
 .bss           0x00000000        0x0 /Users/alexanderryan/Programming/SmartMouse/MapleCode/arm/bin/../lib/gcc/arm-none-eabi/4.4.1/thumb2/libgcc.a(_fixunsdfdi.o)
 .data          0x00000000        0x0 /Users/alexanderryan/Programming/SmartMouse/MapleCode/arm/bin/../lib/gcc/arm-none-eabi/4.4.1/thumb2/libgcc.a(bpabi.o)
 .bss           0x00000000        0x0 /Users/alexanderryan/Programming/SmartMouse/MapleCode/arm/bin/../lib/gcc/arm-none-eabi/4.4.1/thumb2/libgcc.a(bpabi.o)
 .data          0x00000000        0x0 /Users/alexanderryan/Programming/SmartMouse/MapleCode/arm/bin/../lib/gcc/arm-none-eabi/4.4.1/thumb2/libgcc.a(_dvmd_tls.o)
 .bss           0x00000000        0x0 /Users/alexanderryan/Programming/SmartMouse/MapleCode/arm/bin/../lib/gcc/arm-none-eabi/4.4.1/thumb2/libgcc.a(_dvmd_tls.o)
 .text          0x00000000       0x40 /Users/alexanderryan/Programming/SmartMouse/MapleCode/arm/bin/../lib/gcc/arm-none-eabi/4.4.1/thumb2/libgcc.a(_arm_fixunsdfsi.o)
 .data          0x00000000        0x0 /Users/alexanderryan/Programming/SmartMouse/MapleCode/arm/bin/../lib/gcc/arm-none-eabi/4.4.1/thumb2/libgcc.a(_arm_fixunsdfsi.o)
 .bss           0x00000000        0x0 /Users/alexanderryan/Programming/SmartMouse/MapleCode/arm/bin/../lib/gcc/arm-none-eabi/4.4.1/thumb2/libgcc.a(_arm_fixunsdfsi.o)
 .data          0x00000000        0x0 /Users/alexanderryan/Programming/SmartMouse/MapleCode/arm/bin/../lib/gcc/arm-none-eabi/4.4.1/thumb2/libgcc.a(_divdi3.o)
 .bss           0x00000000        0x0 /Users/alexanderryan/Programming/SmartMouse/MapleCode/arm/bin/../lib/gcc/arm-none-eabi/4.4.1/thumb2/libgcc.a(_divdi3.o)
 .ARM.extab     0x00000000        0x0 /Users/alexanderryan/Programming/SmartMouse/MapleCode/arm/bin/../lib/gcc/arm-none-eabi/4.4.1/thumb2/libgcc.a(_divdi3.o)
 .data          0x00000000        0x0 /Users/alexanderryan/Programming/SmartMouse/MapleCode/arm/bin/../lib/gcc/arm-none-eabi/4.4.1/thumb2/libgcc.a(_udivdi3.o)
 .bss           0x00000000        0x0 /Users/alexanderryan/Programming/SmartMouse/MapleCode/arm/bin/../lib/gcc/arm-none-eabi/4.4.1/thumb2/libgcc.a(_udivdi3.o)
 .ARM.extab     0x00000000        0x0 /Users/alexanderryan/Programming/SmartMouse/MapleCode/arm/bin/../lib/gcc/arm-none-eabi/4.4.1/thumb2/libgcc.a(_udivdi3.o)
 .data          0x00000000        0x0 /Users/alexanderryan/Programming/SmartMouse/MapleCode/arm/bin/../lib/gcc/arm-none-eabi/4.4.1/thumb2/libgcc.a(_udivsi3.o)
 .bss           0x00000000        0x0 /Users/alexanderryan/Programming/SmartMouse/MapleCode/arm/bin/../lib/gcc/arm-none-eabi/4.4.1/thumb2/libgcc.a(_udivsi3.o)
 .text          0x00000000        0x0 /Users/alexanderryan/Programming/SmartMouse/MapleCode/arm/bin/../lib/gcc/arm-none-eabi/4.4.1/../../../../arm-none-eabi/lib/thumb2/libc.a(lib_a-errno.o)
 .data          0x00000000        0x0 /Users/alexanderryan/Programming/SmartMouse/MapleCode/arm/bin/../lib/gcc/arm-none-eabi/4.4.1/../../../../arm-none-eabi/lib/thumb2/libc.a(lib_a-errno.o)
 .bss           0x00000000        0x0 /Users/alexanderryan/Programming/SmartMouse/MapleCode/arm/bin/../lib/gcc/arm-none-eabi/4.4.1/../../../../arm-none-eabi/lib/thumb2/libc.a(lib_a-errno.o)
 .text.__errno  0x00000000        0xc /Users/alexanderryan/Programming/SmartMouse/MapleCode/arm/bin/../lib/gcc/arm-none-eabi/4.4.1/../../../../arm-none-eabi/lib/thumb2/libc.a(lib_a-errno.o)
 .text          0x00000000        0x0 /Users/alexanderryan/Programming/SmartMouse/MapleCode/arm/bin/../lib/gcc/arm-none-eabi/4.4.1/../../../../arm-none-eabi/lib/thumb2/libc.a(lib_a-impure.o)
 .data          0x00000000        0x0 /Users/alexanderryan/Programming/SmartMouse/MapleCode/arm/bin/../lib/gcc/arm-none-eabi/4.4.1/../../../../arm-none-eabi/lib/thumb2/libc.a(lib_a-impure.o)
 .bss           0x00000000        0x0 /Users/alexanderryan/Programming/SmartMouse/MapleCode/arm/bin/../lib/gcc/arm-none-eabi/4.4.1/../../../../arm-none-eabi/lib/thumb2/libc.a(lib_a-impure.o)
 .data.impure_data
                0x00000000       0xf0 /Users/alexanderryan/Programming/SmartMouse/MapleCode/arm/bin/../lib/gcc/arm-none-eabi/4.4.1/../../../../arm-none-eabi/lib/thumb2/libc.a(lib_a-impure.o)
 .data._impure_ptr
                0x00000000        0x4 /Users/alexanderryan/Programming/SmartMouse/MapleCode/arm/bin/../lib/gcc/arm-none-eabi/4.4.1/../../../../arm-none-eabi/lib/thumb2/libc.a(lib_a-impure.o)
 .rodata.str1.1
                0x00000000        0x2 /Users/alexanderryan/Programming/SmartMouse/MapleCode/arm/bin/../lib/gcc/arm-none-eabi/4.4.1/../../../../arm-none-eabi/lib/thumb2/libc.a(lib_a-impure.o)
 .rodata._global_impure_ptr
                0x00000000        0x4 /Users/alexanderryan/Programming/SmartMouse/MapleCode/arm/bin/../lib/gcc/arm-none-eabi/4.4.1/../../../../arm-none-eabi/lib/thumb2/libc.a(lib_a-impure.o)
 .text          0x00000000        0x0 /Users/alexanderryan/Programming/SmartMouse/MapleCode/arm/bin/../lib/gcc/arm-none-eabi/4.4.1/../../../../arm-none-eabi/lib/thumb2/libc.a(lib_a-memcmp.o)
 .data          0x00000000        0x0 /Users/alexanderryan/Programming/SmartMouse/MapleCode/arm/bin/../lib/gcc/arm-none-eabi/4.4.1/../../../../arm-none-eabi/lib/thumb2/libc.a(lib_a-memcmp.o)
 .bss           0x00000000        0x0 /Users/alexanderryan/Programming/SmartMouse/MapleCode/arm/bin/../lib/gcc/arm-none-eabi/4.4.1/../../../../arm-none-eabi/lib/thumb2/libc.a(lib_a-memcmp.o)
 .text          0x00000000        0x0 /Users/alexanderryan/Programming/SmartMouse/MapleCode/arm/bin/../lib/gcc/arm-none-eabi/4.4.1/../../../../arm-none-eabi/lib/thumb2/libc.a(lib_a-memcpy.o)
 .data          0x00000000        0x0 /Users/alexanderryan/Programming/SmartMouse/MapleCode/arm/bin/../lib/gcc/arm-none-eabi/4.4.1/../../../../arm-none-eabi/lib/thumb2/libc.a(lib_a-memcpy.o)
 .bss           0x00000000        0x0 /Users/alexanderryan/Programming/SmartMouse/MapleCode/arm/bin/../lib/gcc/arm-none-eabi/4.4.1/../../../../arm-none-eabi/lib/thumb2/libc.a(lib_a-memcpy.o)
 .text.memcpy   0x00000000       0x1a /Users/alexanderryan/Programming/SmartMouse/MapleCode/arm/bin/../lib/gcc/arm-none-eabi/4.4.1/../../../../arm-none-eabi/lib/thumb2/libc.a(lib_a-memcpy.o)
 .text          0x00000000        0x0 /Users/alexanderryan/Programming/SmartMouse/MapleCode/arm/bin/../lib/gcc/arm-none-eabi/4.4.1/../../../../arm-none-eabi/lib/thumb2/libc.a(lib_a-memset.o)
 .data          0x00000000        0x0 /Users/alexanderryan/Programming/SmartMouse/MapleCode/arm/bin/../lib/gcc/arm-none-eabi/4.4.1/../../../../arm-none-eabi/lib/thumb2/libc.a(lib_a-memset.o)
 .bss           0x00000000        0x0 /Users/alexanderryan/Programming/SmartMouse/MapleCode/arm/bin/../lib/gcc/arm-none-eabi/4.4.1/../../../../arm-none-eabi/lib/thumb2/libc.a(lib_a-memset.o)
 .text.memset   0x00000000       0x12 /Users/alexanderryan/Programming/SmartMouse/MapleCode/arm/bin/../lib/gcc/arm-none-eabi/4.4.1/../../../../arm-none-eabi/lib/thumb2/libc.a(lib_a-memset.o)
 .text          0x00000000        0x0 /Users/alexanderryan/Programming/SmartMouse/MapleCode/arm/bin/../lib/gcc/arm-none-eabi/4.4.1/../../../../arm-none-eabi/lib/thumb2/libc.a(lib_a-rand.o)
 .data          0x00000000        0x0 /Users/alexanderryan/Programming/SmartMouse/MapleCode/arm/bin/../lib/gcc/arm-none-eabi/4.4.1/../../../../arm-none-eabi/lib/thumb2/libc.a(lib_a-rand.o)
 .bss           0x00000000        0x0 /Users/alexanderryan/Programming/SmartMouse/MapleCode/arm/bin/../lib/gcc/arm-none-eabi/4.4.1/../../../../arm-none-eabi/lib/thumb2/libc.a(lib_a-rand.o)
 .text.rand     0x00000000       0x84 /Users/alexanderryan/Programming/SmartMouse/MapleCode/arm/bin/../lib/gcc/arm-none-eabi/4.4.1/../../../../arm-none-eabi/lib/thumb2/libc.a(lib_a-rand.o)
 .text.srand    0x00000000       0x5c /Users/alexanderryan/Programming/SmartMouse/MapleCode/arm/bin/../lib/gcc/arm-none-eabi/4.4.1/../../../../arm-none-eabi/lib/thumb2/libc.a(lib_a-rand.o)
 .text          0x00000000        0x0 /Users/alexanderryan/Programming/SmartMouse/MapleCode/arm/bin/../lib/gcc/arm-none-eabi/4.4.1/../../../../arm-none-eabi/lib/thumb2/libc.a(lib_a-sprintf.o)
 .data          0x00000000        0x0 /Users/alexanderryan/Programming/SmartMouse/MapleCode/arm/bin/../lib/gcc/arm-none-eabi/4.4.1/../../../../arm-none-eabi/lib/thumb2/libc.a(lib_a-sprintf.o)
 .bss           0x00000000        0x0 /Users/alexanderryan/Programming/SmartMouse/MapleCode/arm/bin/../lib/gcc/arm-none-eabi/4.4.1/../../../../arm-none-eabi/lib/thumb2/libc.a(lib_a-sprintf.o)
 .text.sprintf  0x00000000       0x48 /Users/alexanderryan/Programming/SmartMouse/MapleCode/arm/bin/../lib/gcc/arm-none-eabi/4.4.1/../../../../arm-none-eabi/lib/thumb2/libc.a(lib_a-sprintf.o)
 .text._sprintf_r
                0x00000000       0x40 /Users/alexanderryan/Programming/SmartMouse/MapleCode/arm/bin/../lib/gcc/arm-none-eabi/4.4.1/../../../../arm-none-eabi/lib/thumb2/libc.a(lib_a-sprintf.o)
 .text          0x00000000        0x0 /Users/alexanderryan/Programming/SmartMouse/MapleCode/arm/bin/../lib/gcc/arm-none-eabi/4.4.1/../../../../arm-none-eabi/lib/thumb2/libc.a(lib_a-strcat.o)
 .data          0x00000000        0x0 /Users/alexanderryan/Programming/SmartMouse/MapleCode/arm/bin/../lib/gcc/arm-none-eabi/4.4.1/../../../../arm-none-eabi/lib/thumb2/libc.a(lib_a-strcat.o)
 .bss           0x00000000        0x0 /Users/alexanderryan/Programming/SmartMouse/MapleCode/arm/bin/../lib/gcc/arm-none-eabi/4.4.1/../../../../arm-none-eabi/lib/thumb2/libc.a(lib_a-strcat.o)
 .text.strcat   0x00000000       0x1a /Users/alexanderryan/Programming/SmartMouse/MapleCode/arm/bin/../lib/gcc/arm-none-eabi/4.4.1/../../../../arm-none-eabi/lib/thumb2/libc.a(lib_a-strcat.o)
 .text          0x00000000        0x0 /Users/alexanderryan/Programming/SmartMouse/MapleCode/arm/bin/../lib/gcc/arm-none-eabi/4.4.1/../../../../arm-none-eabi/lib/thumb2/libc.a(lib_a-strlen.o)
 .data          0x00000000        0x0 /Users/alexanderryan/Programming/SmartMouse/MapleCode/arm/bin/../lib/gcc/arm-none-eabi/4.4.1/../../../../arm-none-eabi/lib/thumb2/libc.a(lib_a-strlen.o)
 .bss           0x00000000        0x0 /Users/alexanderryan/Programming/SmartMouse/MapleCode/arm/bin/../lib/gcc/arm-none-eabi/4.4.1/../../../../arm-none-eabi/lib/thumb2/libc.a(lib_a-strlen.o)
 .text          0x00000000        0x0 /Users/alexanderryan/Programming/SmartMouse/MapleCode/arm/bin/../lib/gcc/arm-none-eabi/4.4.1/../../../../arm-none-eabi/lib/thumb2/libc.a(lib_a-strncpy.o)
 .data          0x00000000        0x0 /Users/alexanderryan/Programming/SmartMouse/MapleCode/arm/bin/../lib/gcc/arm-none-eabi/4.4.1/../../../../arm-none-eabi/lib/thumb2/libc.a(lib_a-strncpy.o)
 .bss           0x00000000        0x0 /Users/alexanderryan/Programming/SmartMouse/MapleCode/arm/bin/../lib/gcc/arm-none-eabi/4.4.1/../../../../arm-none-eabi/lib/thumb2/libc.a(lib_a-strncpy.o)
 .text.strncpy  0x00000000       0x30 /Users/alexanderryan/Programming/SmartMouse/MapleCode/arm/bin/../lib/gcc/arm-none-eabi/4.4.1/../../../../arm-none-eabi/lib/thumb2/libc.a(lib_a-strncpy.o)
 .text          0x00000000        0x0 /Users/alexanderryan/Programming/SmartMouse/MapleCode/arm/bin/../lib/gcc/arm-none-eabi/4.4.1/../../../../arm-none-eabi/lib/thumb2/libc.a(lib_a-svfprintf.o)
 .data          0x00000000        0x0 /Users/alexanderryan/Programming/SmartMouse/MapleCode/arm/bin/../lib/gcc/arm-none-eabi/4.4.1/../../../../arm-none-eabi/lib/thumb2/libc.a(lib_a-svfprintf.o)
 .bss           0x00000000        0x0 /Users/alexanderryan/Programming/SmartMouse/MapleCode/arm/bin/../lib/gcc/arm-none-eabi/4.4.1/../../../../arm-none-eabi/lib/thumb2/libc.a(lib_a-svfprintf.o)
 .text.__sprint_r
                0x00000000       0xf4 /Users/alexanderryan/Programming/SmartMouse/MapleCode/arm/bin/../lib/gcc/arm-none-eabi/4.4.1/../../../../arm-none-eabi/lib/thumb2/libc.a(lib_a-svfprintf.o)
 .text._svfprintf_r
                0x00000000      0xf00 /Users/alexanderryan/Programming/SmartMouse/MapleCode/arm/bin/../lib/gcc/arm-none-eabi/4.4.1/../../../../arm-none-eabi/lib/thumb2/libc.a(lib_a-svfprintf.o)
 .rodata.zeroes.3596
                0x00000000       0x10 /Users/alexanderryan/Programming/SmartMouse/MapleCode/arm/bin/../lib/gcc/arm-none-eabi/4.4.1/../../../../arm-none-eabi/lib/thumb2/libc.a(lib_a-svfprintf.o)
 .rodata.str1.1
                0x00000000       0x34 /Users/alexanderryan/Programming/SmartMouse/MapleCode/arm/bin/../lib/gcc/arm-none-eabi/4.4.1/../../../../arm-none-eabi/lib/thumb2/libc.a(lib_a-svfprintf.o)
 .rodata.blanks.3595
                0x00000000       0x10 /Users/alexanderryan/Programming/SmartMouse/MapleCode/arm/bin/../lib/gcc/arm-none-eabi/4.4.1/../../../../arm-none-eabi/lib/thumb2/libc.a(lib_a-svfprintf.o)
 .text          0x00000000        0x0 /Users/alexanderryan/Programming/SmartMouse/MapleCode/arm/bin/../lib/gcc/arm-none-eabi/4.4.1/../../../../arm-none-eabi/lib/thumb2/libc.a(lib_a-dtoa.o)
 .data          0x00000000        0x0 /Users/alexanderryan/Programming/SmartMouse/MapleCode/arm/bin/../lib/gcc/arm-none-eabi/4.4.1/../../../../arm-none-eabi/lib/thumb2/libc.a(lib_a-dtoa.o)
 .bss           0x00000000        0x0 /Users/alexanderryan/Programming/SmartMouse/MapleCode/arm/bin/../lib/gcc/arm-none-eabi/4.4.1/../../../../arm-none-eabi/lib/thumb2/libc.a(lib_a-dtoa.o)
 .text.quorem   0x00000000      0x116 /Users/alexanderryan/Programming/SmartMouse/MapleCode/arm/bin/../lib/gcc/arm-none-eabi/4.4.1/../../../../arm-none-eabi/lib/thumb2/libc.a(lib_a-dtoa.o)
 .text._dtoa_r  0x00000000      0xb88 /Users/alexanderryan/Programming/SmartMouse/MapleCode/arm/bin/../lib/gcc/arm-none-eabi/4.4.1/../../../../arm-none-eabi/lib/thumb2/libc.a(lib_a-dtoa.o)
 .rodata.str1.1
                0x00000000        0xf /Users/alexanderryan/Programming/SmartMouse/MapleCode/arm/bin/../lib/gcc/arm-none-eabi/4.4.1/../../../../arm-none-eabi/lib/thumb2/libc.a(lib_a-dtoa.o)
 .text          0x00000000        0x0 /Users/alexanderryan/Programming/SmartMouse/MapleCode/arm/bin/../lib/gcc/arm-none-eabi/4.4.1/../../../../arm-none-eabi/lib/thumb2/libc.a(lib_a-freer.o)
 .data          0x00000000        0x0 /Users/alexanderryan/Programming/SmartMouse/MapleCode/arm/bin/../lib/gcc/arm-none-eabi/4.4.1/../../../../arm-none-eabi/lib/thumb2/libc.a(lib_a-freer.o)
 .bss           0x00000000        0x0 /Users/alexanderryan/Programming/SmartMouse/MapleCode/arm/bin/../lib/gcc/arm-none-eabi/4.4.1/../../../../arm-none-eabi/lib/thumb2/libc.a(lib_a-freer.o)
 .text._malloc_trim_r
                0x00000000       0x98 /Users/alexanderryan/Programming/SmartMouse/MapleCode/arm/bin/../lib/gcc/arm-none-eabi/4.4.1/../../../../arm-none-eabi/lib/thumb2/libc.a(lib_a-freer.o)
 .text._free_r  0x00000000      0x19c /Users/alexanderryan/Programming/SmartMouse/MapleCode/arm/bin/../lib/gcc/arm-none-eabi/4.4.1/../../../../arm-none-eabi/lib/thumb2/libc.a(lib_a-freer.o)
 .text          0x00000000        0x0 /Users/alexanderryan/Programming/SmartMouse/MapleCode/arm/bin/../lib/gcc/arm-none-eabi/4.4.1/../../../../arm-none-eabi/lib/thumb2/libc.a(lib_a-locale.o)
 .data          0x00000000        0x0 /Users/alexanderryan/Programming/SmartMouse/MapleCode/arm/bin/../lib/gcc/arm-none-eabi/4.4.1/../../../../arm-none-eabi/lib/thumb2/libc.a(lib_a-locale.o)
 .bss           0x00000000        0x0 /Users/alexanderryan/Programming/SmartMouse/MapleCode/arm/bin/../lib/gcc/arm-none-eabi/4.4.1/../../../../arm-none-eabi/lib/thumb2/libc.a(lib_a-locale.o)
 .text.__locale_charset
                0x00000000        0xc /Users/alexanderryan/Programming/SmartMouse/MapleCode/arm/bin/../lib/gcc/arm-none-eabi/4.4.1/../../../../arm-none-eabi/lib/thumb2/libc.a(lib_a-locale.o)
 .text._localeconv_r
                0x00000000        0x8 /Users/alexanderryan/Programming/SmartMouse/MapleCode/arm/bin/../lib/gcc/arm-none-eabi/4.4.1/../../../../arm-none-eabi/lib/thumb2/libc.a(lib_a-locale.o)
 .text.localeconv
                0x00000000        0x8 /Users/alexanderryan/Programming/SmartMouse/MapleCode/arm/bin/../lib/gcc/arm-none-eabi/4.4.1/../../../../arm-none-eabi/lib/thumb2/libc.a(lib_a-locale.o)
 .text._setlocale_r
                0x00000000       0x38 /Users/alexanderryan/Programming/SmartMouse/MapleCode/arm/bin/../lib/gcc/arm-none-eabi/4.4.1/../../../../arm-none-eabi/lib/thumb2/libc.a(lib_a-locale.o)
 .text.setlocale
                0x00000000       0x14 /Users/alexanderryan/Programming/SmartMouse/MapleCode/arm/bin/../lib/gcc/arm-none-eabi/4.4.1/../../../../arm-none-eabi/lib/thumb2/libc.a(lib_a-locale.o)
 .rodata.charset
                0x00000000        0x4 /Users/alexanderryan/Programming/SmartMouse/MapleCode/arm/bin/../lib/gcc/arm-none-eabi/4.4.1/../../../../arm-none-eabi/lib/thumb2/libc.a(lib_a-locale.o)
 .bss.__nlocale_changed
                0x00000000        0x4 /Users/alexanderryan/Programming/SmartMouse/MapleCode/arm/bin/../lib/gcc/arm-none-eabi/4.4.1/../../../../arm-none-eabi/lib/thumb2/libc.a(lib_a-locale.o)
 .bss.__mlocale_changed
                0x00000000        0x4 /Users/alexanderryan/Programming/SmartMouse/MapleCode/arm/bin/../lib/gcc/arm-none-eabi/4.4.1/../../../../arm-none-eabi/lib/thumb2/libc.a(lib_a-locale.o)
 .rodata.lconv  0x00000000       0x30 /Users/alexanderryan/Programming/SmartMouse/MapleCode/arm/bin/../lib/gcc/arm-none-eabi/4.4.1/../../../../arm-none-eabi/lib/thumb2/libc.a(lib_a-locale.o)
 .bss._PathLocale
                0x00000000        0x4 /Users/alexanderryan/Programming/SmartMouse/MapleCode/arm/bin/../lib/gcc/arm-none-eabi/4.4.1/../../../../arm-none-eabi/lib/thumb2/libc.a(lib_a-locale.o)
 .rodata.str1.1
                0x00000000       0x10 /Users/alexanderryan/Programming/SmartMouse/MapleCode/arm/bin/../lib/gcc/arm-none-eabi/4.4.1/../../../../arm-none-eabi/lib/thumb2/libc.a(lib_a-locale.o)
 .data.__lc_ctype
                0x00000000        0xc /Users/alexanderryan/Programming/SmartMouse/MapleCode/arm/bin/../lib/gcc/arm-none-eabi/4.4.1/../../../../arm-none-eabi/lib/thumb2/libc.a(lib_a-locale.o)
 .data.__mb_cur_max
                0x00000000        0x4 /Users/alexanderryan/Programming/SmartMouse/MapleCode/arm/bin/../lib/gcc/arm-none-eabi/4.4.1/../../../../arm-none-eabi/lib/thumb2/libc.a(lib_a-locale.o)
 .text          0x00000000        0x0 /Users/alexanderryan/Programming/SmartMouse/MapleCode/arm/bin/../lib/gcc/arm-none-eabi/4.4.1/../../../../arm-none-eabi/lib/thumb2/libc.a(lib_a-malloc.o)
 .data          0x00000000        0x0 /Users/alexanderryan/Programming/SmartMouse/MapleCode/arm/bin/../lib/gcc/arm-none-eabi/4.4.1/../../../../arm-none-eabi/lib/thumb2/libc.a(lib_a-malloc.o)
 .bss           0x00000000        0x0 /Users/alexanderryan/Programming/SmartMouse/MapleCode/arm/bin/../lib/gcc/arm-none-eabi/4.4.1/../../../../arm-none-eabi/lib/thumb2/libc.a(lib_a-malloc.o)
 .text.free     0x00000000       0x10 /Users/alexanderryan/Programming/SmartMouse/MapleCode/arm/bin/../lib/gcc/arm-none-eabi/4.4.1/../../../../arm-none-eabi/lib/thumb2/libc.a(lib_a-malloc.o)
 .text.malloc   0x00000000       0x10 /Users/alexanderryan/Programming/SmartMouse/MapleCode/arm/bin/../lib/gcc/arm-none-eabi/4.4.1/../../../../arm-none-eabi/lib/thumb2/libc.a(lib_a-malloc.o)
 .text          0x00000000        0x0 /Users/alexanderryan/Programming/SmartMouse/MapleCode/arm/bin/../lib/gcc/arm-none-eabi/4.4.1/../../../../arm-none-eabi/lib/thumb2/libc.a(lib_a-mallocr.o)
 .data          0x00000000        0x0 /Users/alexanderryan/Programming/SmartMouse/MapleCode/arm/bin/../lib/gcc/arm-none-eabi/4.4.1/../../../../arm-none-eabi/lib/thumb2/libc.a(lib_a-mallocr.o)
 .bss           0x00000000        0x0 /Users/alexanderryan/Programming/SmartMouse/MapleCode/arm/bin/../lib/gcc/arm-none-eabi/4.4.1/../../../../arm-none-eabi/lib/thumb2/libc.a(lib_a-mallocr.o)
 .text._malloc_r
                0x00000000      0x424 /Users/alexanderryan/Programming/SmartMouse/MapleCode/arm/bin/../lib/gcc/arm-none-eabi/4.4.1/../../../../arm-none-eabi/lib/thumb2/libc.a(lib_a-mallocr.o)
 .data.__malloc_av_
                0x00000000      0x408 /Users/alexanderryan/Programming/SmartMouse/MapleCode/arm/bin/../lib/gcc/arm-none-eabi/4.4.1/../../../../arm-none-eabi/lib/thumb2/libc.a(lib_a-mallocr.o)
 .data.__malloc_trim_threshold
                0x00000000        0x4 /Users/alexanderryan/Programming/SmartMouse/MapleCode/arm/bin/../lib/gcc/arm-none-eabi/4.4.1/../../../../arm-none-eabi/lib/thumb2/libc.a(lib_a-mallocr.o)
 .bss.__malloc_max_total_mem
                0x00000000        0x4 /Users/alexanderryan/Programming/SmartMouse/MapleCode/arm/bin/../lib/gcc/arm-none-eabi/4.4.1/../../../../arm-none-eabi/lib/thumb2/libc.a(lib_a-mallocr.o)
 .bss.__malloc_max_sbrked_mem
                0x00000000        0x4 /Users/alexanderryan/Programming/SmartMouse/MapleCode/arm/bin/../lib/gcc/arm-none-eabi/4.4.1/../../../../arm-none-eabi/lib/thumb2/libc.a(lib_a-mallocr.o)
 .bss.__malloc_top_pad
                0x00000000        0x4 /Users/alexanderryan/Programming/SmartMouse/MapleCode/arm/bin/../lib/gcc/arm-none-eabi/4.4.1/../../../../arm-none-eabi/lib/thumb2/libc.a(lib_a-mallocr.o)
 .bss.__malloc_current_mallinfo
                0x00000000       0x28 /Users/alexanderryan/Programming/SmartMouse/MapleCode/arm/bin/../lib/gcc/arm-none-eabi/4.4.1/../../../../arm-none-eabi/lib/thumb2/libc.a(lib_a-mallocr.o)
 .data.__malloc_sbrk_base
                0x00000000        0x4 /Users/alexanderryan/Programming/SmartMouse/MapleCode/arm/bin/../lib/gcc/arm-none-eabi/4.4.1/../../../../arm-none-eabi/lib/thumb2/libc.a(lib_a-mallocr.o)
 .text          0x00000000        0x0 /Users/alexanderryan/Programming/SmartMouse/MapleCode/arm/bin/../lib/gcc/arm-none-eabi/4.4.1/../../../../arm-none-eabi/lib/thumb2/libc.a(lib_a-memchr.o)
 .data          0x00000000        0x0 /Users/alexanderryan/Programming/SmartMouse/MapleCode/arm/bin/../lib/gcc/arm-none-eabi/4.4.1/../../../../arm-none-eabi/lib/thumb2/libc.a(lib_a-memchr.o)
 .bss           0x00000000        0x0 /Users/alexanderryan/Programming/SmartMouse/MapleCode/arm/bin/../lib/gcc/arm-none-eabi/4.4.1/../../../../arm-none-eabi/lib/thumb2/libc.a(lib_a-memchr.o)
 .text.memchr   0x00000000       0x16 /Users/alexanderryan/Programming/SmartMouse/MapleCode/arm/bin/../lib/gcc/arm-none-eabi/4.4.1/../../../../arm-none-eabi/lib/thumb2/libc.a(lib_a-memchr.o)
 .text          0x00000000        0x0 /Users/alexanderryan/Programming/SmartMouse/MapleCode/arm/bin/../lib/gcc/arm-none-eabi/4.4.1/../../../../arm-none-eabi/lib/thumb2/libc.a(lib_a-memmove.o)
 .data          0x00000000        0x0 /Users/alexanderryan/Programming/SmartMouse/MapleCode/arm/bin/../lib/gcc/arm-none-eabi/4.4.1/../../../../arm-none-eabi/lib/thumb2/libc.a(lib_a-memmove.o)
 .bss           0x00000000        0x0 /Users/alexanderryan/Programming/SmartMouse/MapleCode/arm/bin/../lib/gcc/arm-none-eabi/4.4.1/../../../../arm-none-eabi/lib/thumb2/libc.a(lib_a-memmove.o)
 .text.memmove  0x00000000       0x3a /Users/alexanderryan/Programming/SmartMouse/MapleCode/arm/bin/../lib/gcc/arm-none-eabi/4.4.1/../../../../arm-none-eabi/lib/thumb2/libc.a(lib_a-memmove.o)
 .text          0x00000000        0x0 /Users/alexanderryan/Programming/SmartMouse/MapleCode/arm/bin/../lib/gcc/arm-none-eabi/4.4.1/../../../../arm-none-eabi/lib/thumb2/libc.a(lib_a-mlock.o)
 .data          0x00000000        0x0 /Users/alexanderryan/Programming/SmartMouse/MapleCode/arm/bin/../lib/gcc/arm-none-eabi/4.4.1/../../../../arm-none-eabi/lib/thumb2/libc.a(lib_a-mlock.o)
 .bss           0x00000000        0x0 /Users/alexanderryan/Programming/SmartMouse/MapleCode/arm/bin/../lib/gcc/arm-none-eabi/4.4.1/../../../../arm-none-eabi/lib/thumb2/libc.a(lib_a-mlock.o)
 .text.__malloc_lock
                0x00000000        0x2 /Users/alexanderryan/Programming/SmartMouse/MapleCode/arm/bin/../lib/gcc/arm-none-eabi/4.4.1/../../../../arm-none-eabi/lib/thumb2/libc.a(lib_a-mlock.o)
 .text.__malloc_unlock
                0x00000000        0x2 /Users/alexanderryan/Programming/SmartMouse/MapleCode/arm/bin/../lib/gcc/arm-none-eabi/4.4.1/../../../../arm-none-eabi/lib/thumb2/libc.a(lib_a-mlock.o)
 .text          0x00000000        0x0 /Users/alexanderryan/Programming/SmartMouse/MapleCode/arm/bin/../lib/gcc/arm-none-eabi/4.4.1/../../../../arm-none-eabi/lib/thumb2/libc.a(lib_a-mprec.o)
 .data          0x00000000        0x0 /Users/alexanderryan/Programming/SmartMouse/MapleCode/arm/bin/../lib/gcc/arm-none-eabi/4.4.1/../../../../arm-none-eabi/lib/thumb2/libc.a(lib_a-mprec.o)
 .bss           0x00000000        0x0 /Users/alexanderryan/Programming/SmartMouse/MapleCode/arm/bin/../lib/gcc/arm-none-eabi/4.4.1/../../../../arm-none-eabi/lib/thumb2/libc.a(lib_a-mprec.o)
 .text.__hi0bits
                0x00000000       0x40 /Users/alexanderryan/Programming/SmartMouse/MapleCode/arm/bin/../lib/gcc/arm-none-eabi/4.4.1/../../../../arm-none-eabi/lib/thumb2/libc.a(lib_a-mprec.o)
 .text.__lo0bits
                0x00000000       0x64 /Users/alexanderryan/Programming/SmartMouse/MapleCode/arm/bin/../lib/gcc/arm-none-eabi/4.4.1/../../../../arm-none-eabi/lib/thumb2/libc.a(lib_a-mprec.o)
 .text.__mcmp   0x00000000       0x3e /Users/alexanderryan/Programming/SmartMouse/MapleCode/arm/bin/../lib/gcc/arm-none-eabi/4.4.1/../../../../arm-none-eabi/lib/thumb2/libc.a(lib_a-mprec.o)
 .text.__ulp    0x00000000       0x44 /Users/alexanderryan/Programming/SmartMouse/MapleCode/arm/bin/../lib/gcc/arm-none-eabi/4.4.1/../../../../arm-none-eabi/lib/thumb2/libc.a(lib_a-mprec.o)
 .text.__b2d    0x00000000       0xa8 /Users/alexanderryan/Programming/SmartMouse/MapleCode/arm/bin/../lib/gcc/arm-none-eabi/4.4.1/../../../../arm-none-eabi/lib/thumb2/libc.a(lib_a-mprec.o)
 .text.__ratio  0x00000000       0x48 /Users/alexanderryan/Programming/SmartMouse/MapleCode/arm/bin/../lib/gcc/arm-none-eabi/4.4.1/../../../../arm-none-eabi/lib/thumb2/libc.a(lib_a-mprec.o)
 .text._mprec_log10
                0x00000000       0x34 /Users/alexanderryan/Programming/SmartMouse/MapleCode/arm/bin/../lib/gcc/arm-none-eabi/4.4.1/../../../../arm-none-eabi/lib/thumb2/libc.a(lib_a-mprec.o)
 .text.__copybits
                0x00000000       0x3c /Users/alexanderryan/Programming/SmartMouse/MapleCode/arm/bin/../lib/gcc/arm-none-eabi/4.4.1/../../../../arm-none-eabi/lib/thumb2/libc.a(lib_a-mprec.o)
 .text.__any_on
                0x00000000       0x46 /Users/alexanderryan/Programming/SmartMouse/MapleCode/arm/bin/../lib/gcc/arm-none-eabi/4.4.1/../../../../arm-none-eabi/lib/thumb2/libc.a(lib_a-mprec.o)
 .text._Bfree   0x00000000       0x2e /Users/alexanderryan/Programming/SmartMouse/MapleCode/arm/bin/../lib/gcc/arm-none-eabi/4.4.1/../../../../arm-none-eabi/lib/thumb2/libc.a(lib_a-mprec.o)
 .text._Balloc  0x00000000       0x66 /Users/alexanderryan/Programming/SmartMouse/MapleCode/arm/bin/../lib/gcc/arm-none-eabi/4.4.1/../../../../arm-none-eabi/lib/thumb2/libc.a(lib_a-mprec.o)
 .text.__d2b    0x00000000       0xc2 /Users/alexanderryan/Programming/SmartMouse/MapleCode/arm/bin/../lib/gcc/arm-none-eabi/4.4.1/../../../../arm-none-eabi/lib/thumb2/libc.a(lib_a-mprec.o)
 .text.__mdiff  0x00000000       0xd0 /Users/alexanderryan/Programming/SmartMouse/MapleCode/arm/bin/../lib/gcc/arm-none-eabi/4.4.1/../../../../arm-none-eabi/lib/thumb2/libc.a(lib_a-mprec.o)
 .text.__lshift
                0x00000000       0xa4 /Users/alexanderryan/Programming/SmartMouse/MapleCode/arm/bin/../lib/gcc/arm-none-eabi/4.4.1/../../../../arm-none-eabi/lib/thumb2/libc.a(lib_a-mprec.o)
 .text.__multiply
                0x00000000      0x122 /Users/alexanderryan/Programming/SmartMouse/MapleCode/arm/bin/../lib/gcc/arm-none-eabi/4.4.1/../../../../arm-none-eabi/lib/thumb2/libc.a(lib_a-mprec.o)
 .text.__i2b    0x00000000       0x12 /Users/alexanderryan/Programming/SmartMouse/MapleCode/arm/bin/../lib/gcc/arm-none-eabi/4.4.1/../../../../arm-none-eabi/lib/thumb2/libc.a(lib_a-mprec.o)
 .text.__multadd
                0x00000000       0x82 /Users/alexanderryan/Programming/SmartMouse/MapleCode/arm/bin/../lib/gcc/arm-none-eabi/4.4.1/../../../../arm-none-eabi/lib/thumb2/libc.a(lib_a-mprec.o)
 .text.__pow5mult
                0x00000000       0xa4 /Users/alexanderryan/Programming/SmartMouse/MapleCode/arm/bin/../lib/gcc/arm-none-eabi/4.4.1/../../../../arm-none-eabi/lib/thumb2/libc.a(lib_a-mprec.o)
 .text.__s2b    0x00000000       0x82 /Users/alexanderryan/Programming/SmartMouse/MapleCode/arm/bin/../lib/gcc/arm-none-eabi/4.4.1/../../../../arm-none-eabi/lib/thumb2/libc.a(lib_a-mprec.o)
 .rodata.p05.2463
                0x00000000        0xc /Users/alexanderryan/Programming/SmartMouse/MapleCode/arm/bin/../lib/gcc/arm-none-eabi/4.4.1/../../../../arm-none-eabi/lib/thumb2/libc.a(lib_a-mprec.o)
 .rodata.__mprec_tens
                0x00000000       0xc8 /Users/alexanderryan/Programming/SmartMouse/MapleCode/arm/bin/../lib/gcc/arm-none-eabi/4.4.1/../../../../arm-none-eabi/lib/thumb2/libc.a(lib_a-mprec.o)
 .rodata.__mprec_bigtens
                0x00000000       0x28 /Users/alexanderryan/Programming/SmartMouse/MapleCode/arm/bin/../lib/gcc/arm-none-eabi/4.4.1/../../../../arm-none-eabi/lib/thumb2/libc.a(lib_a-mprec.o)
 .rodata.__mprec_tinytens
                0x00000000       0x28 /Users/alexanderryan/Programming/SmartMouse/MapleCode/arm/bin/../lib/gcc/arm-none-eabi/4.4.1/../../../../arm-none-eabi/lib/thumb2/libc.a(lib_a-mprec.o)
 .text          0x00000000        0x0 /Users/alexanderryan/Programming/SmartMouse/MapleCode/arm/bin/../lib/gcc/arm-none-eabi/4.4.1/../../../../arm-none-eabi/lib/thumb2/libc.a(lib_a-reallocr.o)
 .data          0x00000000        0x0 /Users/alexanderryan/Programming/SmartMouse/MapleCode/arm/bin/../lib/gcc/arm-none-eabi/4.4.1/../../../../arm-none-eabi/lib/thumb2/libc.a(lib_a-reallocr.o)
 .bss           0x00000000        0x0 /Users/alexanderryan/Programming/SmartMouse/MapleCode/arm/bin/../lib/gcc/arm-none-eabi/4.4.1/../../../../arm-none-eabi/lib/thumb2/libc.a(lib_a-reallocr.o)
 .text._realloc_r
                0x00000000      0x2f4 /Users/alexanderryan/Programming/SmartMouse/MapleCode/arm/bin/../lib/gcc/arm-none-eabi/4.4.1/../../../../arm-none-eabi/lib/thumb2/libc.a(lib_a-reallocr.o)
 .text          0x00000000        0x0 /Users/alexanderryan/Programming/SmartMouse/MapleCode/arm/bin/../lib/gcc/arm-none-eabi/4.4.1/../../../../arm-none-eabi/lib/thumb2/libc.a(lib_a-s_isinfd.o)
 .data          0x00000000        0x0 /Users/alexanderryan/Programming/SmartMouse/MapleCode/arm/bin/../lib/gcc/arm-none-eabi/4.4.1/../../../../arm-none-eabi/lib/thumb2/libc.a(lib_a-s_isinfd.o)
 .bss           0x00000000        0x0 /Users/alexanderryan/Programming/SmartMouse/MapleCode/arm/bin/../lib/gcc/arm-none-eabi/4.4.1/../../../../arm-none-eabi/lib/thumb2/libc.a(lib_a-s_isinfd.o)
 .text.__isinfd
                0x00000000       0x22 /Users/alexanderryan/Programming/SmartMouse/MapleCode/arm/bin/../lib/gcc/arm-none-eabi/4.4.1/../../../../arm-none-eabi/lib/thumb2/libc.a(lib_a-s_isinfd.o)
 .text          0x00000000        0x0 /Users/alexanderryan/Programming/SmartMouse/MapleCode/arm/bin/../lib/gcc/arm-none-eabi/4.4.1/../../../../arm-none-eabi/lib/thumb2/libc.a(lib_a-s_isnand.o)
 .data          0x00000000        0x0 /Users/alexanderryan/Programming/SmartMouse/MapleCode/arm/bin/../lib/gcc/arm-none-eabi/4.4.1/../../../../arm-none-eabi/lib/thumb2/libc.a(lib_a-s_isnand.o)
 .bss           0x00000000        0x0 /Users/alexanderryan/Programming/SmartMouse/MapleCode/arm/bin/../lib/gcc/arm-none-eabi/4.4.1/../../../../arm-none-eabi/lib/thumb2/libc.a(lib_a-s_isnand.o)
 .text.__isnand
                0x00000000       0x1a /Users/alexanderryan/Programming/SmartMouse/MapleCode/arm/bin/../lib/gcc/arm-none-eabi/4.4.1/../../../../arm-none-eabi/lib/thumb2/libc.a(lib_a-s_isnand.o)
 .text          0x00000000        0x0 /Users/alexanderryan/Programming/SmartMouse/MapleCode/arm/bin/../lib/gcc/arm-none-eabi/4.4.1/../../../../arm-none-eabi/lib/thumb2/libc.a(lib_a-sbrkr.o)
 .data          0x00000000        0x0 /Users/alexanderryan/Programming/SmartMouse/MapleCode/arm/bin/../lib/gcc/arm-none-eabi/4.4.1/../../../../arm-none-eabi/lib/thumb2/libc.a(lib_a-sbrkr.o)
 .bss           0x00000000        0x0 /Users/alexanderryan/Programming/SmartMouse/MapleCode/arm/bin/../lib/gcc/arm-none-eabi/4.4.1/../../../../arm-none-eabi/lib/thumb2/libc.a(lib_a-sbrkr.o)
 .text._sbrk_r  0x00000000       0x24 /Users/alexanderryan/Programming/SmartMouse/MapleCode/arm/bin/../lib/gcc/arm-none-eabi/4.4.1/../../../../arm-none-eabi/lib/thumb2/libc.a(lib_a-sbrkr.o)
 .text          0x00000000        0x0 /Users/alexanderryan/Programming/SmartMouse/MapleCode/arm/bin/../lib/gcc/arm-none-eabi/4.4.1/../../../../arm-none-eabi/lib/thumb2/libc.a(lib_a-strcmp.o)
 .data          0x00000000        0x0 /Users/alexanderryan/Programming/SmartMouse/MapleCode/arm/bin/../lib/gcc/arm-none-eabi/4.4.1/../../../../arm-none-eabi/lib/thumb2/libc.a(lib_a-strcmp.o)
 .bss           0x00000000        0x0 /Users/alexanderryan/Programming/SmartMouse/MapleCode/arm/bin/../lib/gcc/arm-none-eabi/4.4.1/../../../../arm-none-eabi/lib/thumb2/libc.a(lib_a-strcmp.o)
 .text.strcmp   0x00000000       0x16 /Users/alexanderryan/Programming/SmartMouse/MapleCode/arm/bin/../lib/gcc/arm-none-eabi/4.4.1/../../../../arm-none-eabi/lib/thumb2/libc.a(lib_a-strcmp.o)
 .text          0x00000000        0x0 /Users/alexanderryan/Programming/SmartMouse/MapleCode/arm/bin/../lib/gcc/arm-none-eabi/4.4.1/../../../../arm-none-eabi/lib/thumb2/libc.a(lib_a-callocr.o)
 .data          0x00000000        0x0 /Users/alexanderryan/Programming/SmartMouse/MapleCode/arm/bin/../lib/gcc/arm-none-eabi/4.4.1/../../../../arm-none-eabi/lib/thumb2/libc.a(lib_a-callocr.o)
 .bss           0x00000000        0x0 /Users/alexanderryan/Programming/SmartMouse/MapleCode/arm/bin/../lib/gcc/arm-none-eabi/4.4.1/../../../../arm-none-eabi/lib/thumb2/libc.a(lib_a-callocr.o)
 .text._calloc_r
                0x00000000       0x58 /Users/alexanderryan/Programming/SmartMouse/MapleCode/arm/bin/../lib/gcc/arm-none-eabi/4.4.1/../../../../arm-none-eabi/lib/thumb2/libc.a(lib_a-callocr.o)
 .text          0x00000000        0x0 /Users/alexanderryan/Programming/SmartMouse/MapleCode/arm/bin/../lib/gcc/arm-none-eabi/4.4.1/../../../../arm-none-eabi/lib/thumb2/libc.a(lib_a-reent.o)
 .data          0x00000000        0x0 /Users/alexanderryan/Programming/SmartMouse/MapleCode/arm/bin/../lib/gcc/arm-none-eabi/4.4.1/../../../../arm-none-eabi/lib/thumb2/libc.a(lib_a-reent.o)
 .bss           0x00000000        0x0 /Users/alexanderryan/Programming/SmartMouse/MapleCode/arm/bin/../lib/gcc/arm-none-eabi/4.4.1/../../../../arm-none-eabi/lib/thumb2/libc.a(lib_a-reent.o)
 .text._wrapup_reent
                0x00000000       0x30 /Users/alexanderryan/Programming/SmartMouse/MapleCode/arm/bin/../lib/gcc/arm-none-eabi/4.4.1/../../../../arm-none-eabi/lib/thumb2/libc.a(lib_a-reent.o)
 .text.cleanup_glue
                0x00000000       0x1a /Users/alexanderryan/Programming/SmartMouse/MapleCode/arm/bin/../lib/gcc/arm-none-eabi/4.4.1/../../../../arm-none-eabi/lib/thumb2/libc.a(lib_a-reent.o)
 .text._reclaim_reent
                0x00000000       0xb4 /Users/alexanderryan/Programming/SmartMouse/MapleCode/arm/bin/../lib/gcc/arm-none-eabi/4.4.1/../../../../arm-none-eabi/lib/thumb2/libc.a(lib_a-reent.o)
 COMMON         0x00000000        0x4 /Users/alexanderryan/Programming/SmartMouse/MapleCode/arm/bin/../lib/gcc/arm-none-eabi/4.4.1/../../../../arm-none-eabi/lib/thumb2/libc.a(lib_a-reent.o)
 .text          0x00000000      0x2b0 /Users/alexanderryan/Programming/SmartMouse/MapleCode/arm/bin/../lib/gcc/arm-none-eabi/4.4.1/thumb2/libgcc.a(_divsi3.o)
 .data          0x00000000        0x0 /Users/alexanderryan/Programming/SmartMouse/MapleCode/arm/bin/../lib/gcc/arm-none-eabi/4.4.1/thumb2/libgcc.a(_divsi3.o)
 .bss           0x00000000        0x0 /Users/alexanderryan/Programming/SmartMouse/MapleCode/arm/bin/../lib/gcc/arm-none-eabi/4.4.1/thumb2/libgcc.a(_divsi3.o)
 .text          0x00000000        0x0 /Users/alexanderryan/Programming/SmartMouse/MapleCode/arm/bin/../lib/gcc/arm-none-eabi/4.4.1/thumb2/crtend.o
 .data          0x00000000        0x0 /Users/alexanderryan/Programming/SmartMouse/MapleCode/arm/bin/../lib/gcc/arm-none-eabi/4.4.1/thumb2/crtend.o
 .bss           0x00000000        0x0 /Users/alexanderryan/Programming/SmartMouse/MapleCode/arm/bin/../lib/gcc/arm-none-eabi/4.4.1/thumb2/crtend.o
 .jcr           0x00000000        0x4 /Users/alexanderryan/Programming/SmartMouse/MapleCode/arm/bin/../lib/gcc/arm-none-eabi/4.4.1/thumb2/crtend.o
 .text          0x00000000        0x0 /Users/alexanderryan/Programming/SmartMouse/MapleCode/arm/bin/../lib/gcc/arm-none-eabi/4.4.1/thumb2/crtn.o
 .data          0x00000000        0x0 /Users/alexanderryan/Programming/SmartMouse/MapleCode/arm/bin/../lib/gcc/arm-none-eabi/4.4.1/thumb2/crtn.o
 .bss           0x00000000        0x0 /Users/alexanderryan/Programming/SmartMouse/MapleCode/arm/bin/../lib/gcc/arm-none-eabi/4.4.1/thumb2/crtn.o
 .text          0x00000000        0x0 ../../libmaple/support/ld/libcs3_stm32_high_density.a(stm32_vector_table.o)
 .data          0x00000000        0x0 ../../libmaple/support/ld/libcs3_stm32_high_density.a(stm32_vector_table.o)
 .bss           0x00000000        0x0 ../../libmaple/support/ld/libcs3_stm32_high_density.a(stm32_vector_table.o)
 .data          0x00000000        0x0 ../../libmaple/support/ld/libcs3_stm32_high_density.a(stm32_isrs.o)
 .bss           0x00000000        0x0 ../../libmaple/support/ld/libcs3_stm32_high_density.a(stm32_isrs.o)
 .data          0x00000000        0x0 ../../libmaple/support/ld/libcs3_stm32_high_density.a(start.o)
 .bss           0x00000000        0x0 ../../libmaple/support/ld/libcs3_stm32_high_density.a(start.o)
 .ARM.extab     0x00000000        0x0 ../../libmaple/support/ld/libcs3_stm32_high_density.a(start.o)
 .data          0x00000000        0x0 ../../libmaple/support/ld/libcs3_stm32_high_density.a(start_c.o)
 .bss           0x00000000        0x0 ../../libmaple/support/ld/libcs3_stm32_high_density.a(start_c.o)
 .text          0x00000000        0x0 /Users/alexanderryan/Programming/SmartMouse/MapleCode/arm/bin/../lib/gcc/arm-none-eabi/4.4.1/../../../../arm-none-eabi/lib/thumb2/libc.a(lib_a-init.o)
 .data          0x00000000        0x0 /Users/alexanderryan/Programming/SmartMouse/MapleCode/arm/bin/../lib/gcc/arm-none-eabi/4.4.1/../../../../arm-none-eabi/lib/thumb2/libc.a(lib_a-init.o)
 .bss           0x00000000        0x0 /Users/alexanderryan/Programming/SmartMouse/MapleCode/arm/bin/../lib/gcc/arm-none-eabi/4.4.1/../../../../arm-none-eabi/lib/thumb2/libc.a(lib_a-init.o)

Memory Configuration

Name             Origin             Length             Attributes
ram              0x20000c00         0x0000f400         xrw
rom              0x08005000         0x0007b000         xr
*default*        0x00000000         0xffffffff

Linker script and memory map

LOAD /Users/alexanderryan/Programming/SmartMouse/MapleCode/arm/bin/../lib/gcc/arm-none-eabi/4.4.1/thumb2/crti.o
LOAD /Users/alexanderryan/Programming/SmartMouse/MapleCode/arm/bin/../lib/gcc/arm-none-eabi/4.4.1/thumb2/crtbegin.o
LOAD build/../../libmaple/libmaple/adc.o
LOAD build/../../libmaple/libmaple/bkp.o
LOAD build/../../libmaple/libmaple/dac.o
LOAD build/../../libmaple/libmaple/dma.o
LOAD build/../../libmaple/libmaple/exti.o
LOAD build/../../libmaple/libmaple/flash.o
LOAD build/../../libmaple/libmaple/fsmc.o
LOAD build/../../libmaple/libmaple/gpio.o
LOAD build/../../libmaple/libmaple/iwdg.o
LOAD build/../../libmaple/libmaple/nvic.o
LOAD build/../../libmaple/libmaple/pwr.o
LOAD build/../../libmaple/libmaple/i2c.o
LOAD build/../../libmaple/libmaple/rcc.o
LOAD build/../../libmaple/libmaple/spi.o
LOAD build/../../libmaple/libmaple/syscalls.o
LOAD build/../../libmaple/libmaple/systick.o
LOAD build/../../libmaple/libmaple/timer.o
LOAD build/../../libmaple/libmaple/usart.o
LOAD build/../../libmaple/libmaple/util.o
LOAD build/../../libmaple/libmaple/usb/usb.o
LOAD build/../../libmaple/libmaple/usb/usb_reg_map.o
LOAD build/../../libmaple/libmaple/usb/usb_cdcacm.o
LOAD build/../../libmaple/libmaple/usb/usb_lib/usb_core.o
LOAD build/../../libmaple/libmaple/usb/usb_lib/usb_init.o
LOAD build/../../libmaple/libmaple/usb/usb_lib/usb_mem.o
LOAD build/../../libmaple/libmaple/usb/usb_lib/usb_regs.o
LOAD build/../../libmaple/libmaple/exc.o
LOAD build/../../libmaple/wirish/wirish_math.o
LOAD build/../../libmaple/wirish/Print.o
LOAD build/../../libmaple/wirish/boards.o
LOAD build/../../libmaple/wirish/boards/maple.o
LOAD build/../../libmaple/wirish/boards/maple_mini.o
LOAD build/../../libmaple/wirish/boards/maple_native.o
LOAD build/../../libmaple/wirish/boards/maple_RET6.o
LOAD build/../../libmaple/wirish/boards/olimex_stm32_h103.o
LOAD build/../../libmaple/wirish/comm/HardwareSerial.o
LOAD build/../../libmaple/wirish/comm/HardwareSPI.o
LOAD build/../../libmaple/wirish/HardwareTimer.o
LOAD build/../../libmaple/wirish/usb_serial.o
LOAD build/../../libmaple/wirish/cxxabi-compat.o
LOAD build/../../libmaple/wirish/wirish_shift.o
LOAD build/../../libmaple/wirish/wirish_analog.o
LOAD build/../../libmaple/wirish/wirish_time.o
LOAD build/../../libmaple/wirish/pwm.o
LOAD build/../../libmaple/wirish/ext_interrupts.o
LOAD build/../../libmaple/wirish/wirish_digital.o
LOAD build/../../libmaple/libraries/Servo/Servo.o
LOAD build/../../libmaple/libraries/LiquidCrystal/LiquidCrystal.o
LOAD build/../../libmaple/libraries/Wire/Wire.o
LOAD build/../../libmaple/libraries/FreeRTOS/utility/croutine.o
LOAD build/../../libmaple/libraries/FreeRTOS/utility/heap_2.o
LOAD build/../../libmaple/libraries/FreeRTOS/utility/list.o
LOAD build/../../libmaple/libraries/FreeRTOS/utility/port.o
LOAD build/../../libmaple/libraries/FreeRTOS/utility/queue.o
LOAD build/../../libmaple/libraries/FreeRTOS/utility/timers.o
LOAD build/../../libmaple/libraries/FreeRTOS/utility/tasks.o
LOAD build/../../libmaple/libraries/FreeRTOS/MapleFreeRTOS.o
LOAD build/IO.o
LOAD build/Infrareds.o
LOAD build/Sensors.o
LOAD build/Ultrasonics.o
LOAD build/main.o
LOAD build/DriveControl.o
LOAD build/MiceSensors.o
LOAD /Users/alexanderryan/Programming/SmartMouse/MapleCode/arm/bin/../lib/gcc/arm-none-eabi/4.4.1/../../../../arm-none-eabi/lib/thumb2/libstdc++.a
LOAD /Users/alexanderryan/Programming/SmartMouse/MapleCode/arm/bin/../lib/gcc/arm-none-eabi/4.4.1/../../../../arm-none-eabi/lib/thumb2/libm.a
START GROUP
LOAD /Users/alexanderryan/Programming/SmartMouse/MapleCode/arm/bin/../lib/gcc/arm-none-eabi/4.4.1/thumb2/libgcc.a
LOAD /Users/alexanderryan/Programming/SmartMouse/MapleCode/arm/bin/../lib/gcc/arm-none-eabi/4.4.1/../../../../arm-none-eabi/lib/thumb2/libc.a
END GROUP
LOAD /Users/alexanderryan/Programming/SmartMouse/MapleCode/arm/bin/../lib/gcc/arm-none-eabi/4.4.1/thumb2/crtend.o
LOAD /Users/alexanderryan/Programming/SmartMouse/MapleCode/arm/bin/../lib/gcc/arm-none-eabi/4.4.1/thumb2/crtn.o
START GROUP
LOAD ../../libmaple/support/ld/libcs3_stm32_high_density.a
END GROUP
                0x00000001                _FLASH_BUILD = 0x1
START GROUP
LOAD /Users/alexanderryan/Programming/SmartMouse/MapleCode/arm/bin/../lib/gcc/arm-none-eabi/4.4.1/thumb2/libgcc.a
LOAD /Users/alexanderryan/Programming/SmartMouse/MapleCode/arm/bin/../lib/gcc/arm-none-eabi/4.4.1/../../../../arm-none-eabi/lib/thumb2/libc.a
LOAD /Users/alexanderryan/Programming/SmartMouse/MapleCode/arm/bin/../lib/gcc/arm-none-eabi/4.4.1/../../../../arm-none-eabi/lib/thumb2/libm.a
END GROUP
                0x20010000                PROVIDE (__cs3_stack, (__cs3_region_start_ram + 0xf400))
                0x080085b4                PROVIDE (__cs3_reset, _start)

.text           0x08005000     0x3754
                0x08005000                __text_start = .
 *(.stm32.interrupt_vector)
 .stm32.interrupt_vector
                0x08005000       0xec ../../libmaple/support/ld/libcs3_stm32_high_density.a(stm32_vector_table.o)
                0x08005000                __cs3_stm32_vector_table
 *(.text .text.* .gnu.linkonce.t.*)
 .text          0x080050ec       0x30 /Users/alexanderryan/Programming/SmartMouse/MapleCode/arm/bin/../lib/gcc/arm-none-eabi/4.4.1/thumb2/crtbegin.o
 .text.adc_foreach
                0x0800511c       0x24 build/../../libmaple/libmaple/adc.o
                0x0800511c                adc_foreach
 .text.adc_set_sample_rate
                0x08005140       0x2e build/../../libmaple/libmaple/adc.o
                0x08005140                adc_set_sample_rate
 .text.adc_read
                0x0800516e       0x22 build/../../libmaple/libmaple/adc.o
                0x0800516e                adc_read
 .text.dma_clear_isr_bits
                0x08005190       0x10 build/../../libmaple/libmaple/dma.o
 .text.dispatch_handler
                0x080051a0       0x1c build/../../libmaple/libmaple/dma.o
 .text.__irq_dma1_channel1
                0x080051bc       0x10 build/../../libmaple/libmaple/dma.o
                0x080051bc                __irq_dma1_channel1
 .text.__irq_dma1_channel2
                0x080051cc       0x10 build/../../libmaple/libmaple/dma.o
                0x080051cc                __irq_dma1_channel2
 .text.__irq_dma1_channel3
                0x080051dc       0x10 build/../../libmaple/libmaple/dma.o
                0x080051dc                __irq_dma1_channel3
 .text.__irq_dma1_channel4
                0x080051ec       0x10 build/../../libmaple/libmaple/dma.o
                0x080051ec                __irq_dma1_channel4
 .text.__irq_dma1_channel5
                0x080051fc       0x10 build/../../libmaple/libmaple/dma.o
                0x080051fc                __irq_dma1_channel5
 .text.__irq_dma1_channel6
                0x0800520c       0x10 build/../../libmaple/libmaple/dma.o
                0x0800520c                __irq_dma1_channel6
 .text.__irq_dma1_channel7
                0x0800521c       0x10 build/../../libmaple/libmaple/dma.o
                0x0800521c                __irq_dma1_channel7
 .text.__irq_dma2_channel1
                0x0800522c       0x10 build/../../libmaple/libmaple/dma.o
                0x0800522c                __irq_dma2_channel1
 .text.__irq_dma2_channel2
                0x0800523c       0x10 build/../../libmaple/libmaple/dma.o
                0x0800523c                __irq_dma2_channel2
 .text.__irq_dma2_channel3
                0x0800524c       0x10 build/../../libmaple/libmaple/dma.o
                0x0800524c                __irq_dma2_channel3
 .text.__irq_dma2_channel4_5
                0x0800525c       0x1c build/../../libmaple/libmaple/dma.o
                0x0800525c                __irq_dma2_channel4_5
 .text.clear_pending_msk
                0x08005278       0x10 build/../../libmaple/libmaple/exti.o
 .text.dispatch_single_exti
                0x08005288       0x20 build/../../libmaple/libmaple/exti.o
 .text.__irq_exti4
                0x080052a8        0x6 build/../../libmaple/libmaple/exti.o
                0x080052a8                __irq_exti4
 .text.__irq_exti3
                0x080052ae        0x6 build/../../libmaple/libmaple/exti.o
                0x080052ae                __irq_exti3
 .text.__irq_exti2
                0x080052b4        0x6 build/../../libmaple/libmaple/exti.o
                0x080052b4                __irq_exti2
 .text.__irq_exti1
                0x080052ba        0x6 build/../../libmaple/libmaple/exti.o
                0x080052ba                __irq_exti1
 .text.__irq_exti0
                0x080052c0        0x6 build/../../libmaple/libmaple/exti.o
                0x080052c0                __irq_exti0
 *fill*         0x080052c6        0x2 00
 .text.dispatch_extis
                0x080052c8       0x44 build/../../libmaple/libmaple/exti.o
 .text.__irq_exti15_10
                0x0800530c        0x8 build/../../libmaple/libmaple/exti.o
                0x0800530c                __irq_exti15_10
 .text.__irq_exti9_5
                0x08005314        0x8 build/../../libmaple/libmaple/exti.o
                0x08005314                __irq_exti9_5
 .text.gpio_set_mode
                0x0800531c       0x56 build/../../libmaple/libmaple/gpio.o
                0x0800531c                gpio_set_mode
 .text.i2c_write
                0x08005372        0x6 build/../../libmaple/libmaple/i2c.o
 .text.i2c_start_condition
                0x08005378       0x14 build/../../libmaple/libmaple/i2c.o
 .text.i2c_stop_condition
                0x0800538c       0x1c build/../../libmaple/libmaple/i2c.o
 .text.i2c_enable_irq
                0x080053a8        0xc build/../../libmaple/libmaple/i2c.o
 .text.i2c_disable_irq
                0x080053b4        0xc build/../../libmaple/libmaple/i2c.o
 .text.i2c_disable_ack
                0x080053c0        0xc build/../../libmaple/libmaple/i2c.o
 .text.i2c_irq_error_handler
                0x080053cc       0x2a build/../../libmaple/libmaple/i2c.o
 *fill*         0x080053f6        0x2 00
 .text.__irq_i2c1_er
                0x080053f8        0xc build/../../libmaple/libmaple/i2c.o
                0x080053f8                __irq_i2c1_er
 .text.__irq_i2c2_er
                0x08005404        0xc build/../../libmaple/libmaple/i2c.o
                0x08005404                __irq_i2c2_er
 .text.i2c_irq_handler
                0x08005410      0x158 build/../../libmaple/libmaple/i2c.o
 .text.__irq_i2c2_ev
                0x08005568        0xc build/../../libmaple/libmaple/i2c.o
                0x08005568                __irq_i2c2_ev
 .text.__irq_i2c1_ev
                0x08005574        0xc build/../../libmaple/libmaple/i2c.o
                0x08005574                __irq_i2c1_ev
 .text.bb_peri_set_bit
                0x08005580        0xe build/../../libmaple/libmaple/rcc.o
 *fill*         0x0800558e        0x2 00
 .text.rcc_clk_enable
                0x08005590       0x20 build/../../libmaple/libmaple/rcc.o
                0x08005590                rcc_clk_enable
 .text.__exc_systick
                0x080055b0       0x1c build/../../libmaple/libmaple/systick.o
                0x080055b0                __exc_systick
 .text.nvic_irq_enable
                0x080055cc       0x1c build/../../libmaple/libmaple/timer.o
 .text.timer_oc_set_mode
                0x080055e8       0x38 build/../../libmaple/libmaple/timer.o
 .text.timer_disable
                0x08005620       0x12 build/../../libmaple/libmaple/timer.o
                0x08005620                timer_disable
 *fill*         0x08005632        0x2 00
 .text.timer_foreach
                0x08005634       0x58 build/../../libmaple/libmaple/timer.o
                0x08005634                timer_foreach
 .text.dispatch_single_irq
                0x0800568c       0x1a build/../../libmaple/libmaple/timer.o
 .text.dispatch_adv_brk
                0x080056a6        0x8 build/../../libmaple/libmaple/timer.o
 *fill*         0x080056ae        0x2 00
 .text.__irq_tim8_brk
                0x080056b0        0xc build/../../libmaple/libmaple/timer.o
                0x080056b0                __irq_tim8_brk
 .text.__irq_tim1_brk
                0x080056bc        0xc build/../../libmaple/libmaple/timer.o
                0x080056bc                __irq_tim1_brk
 .text.dispatch_adv_up
                0x080056c8        0x8 build/../../libmaple/libmaple/timer.o
 .text.__irq_tim8_up
                0x080056d0        0xc build/../../libmaple/libmaple/timer.o
                0x080056d0                __irq_tim8_up
 .text.__irq_tim1_up
                0x080056dc        0xc build/../../libmaple/libmaple/timer.o
                0x080056dc                __irq_tim1_up
 .text.dispatch_adv_trg_com
                0x080056e8       0x3a build/../../libmaple/libmaple/timer.o
 *fill*         0x08005722        0x2 00
 .text.__irq_tim8_trg_com
                0x08005724        0xc build/../../libmaple/libmaple/timer.o
                0x08005724                __irq_tim8_trg_com
 .text.__irq_tim1_trg_com
                0x08005730        0xc build/../../libmaple/libmaple/timer.o
                0x08005730                __irq_tim1_trg_com
 .text.dispatch_adv_cc
                0x0800573c       0x5a build/../../libmaple/libmaple/timer.o
 *fill*         0x08005796        0x2 00
 .text.__irq_tim8_cc
                0x08005798        0xc build/../../libmaple/libmaple/timer.o
                0x08005798                __irq_tim8_cc
 .text.__irq_tim1_cc
                0x080057a4        0xc build/../../libmaple/libmaple/timer.o
                0x080057a4                __irq_tim1_cc
 .text.dispatch_general
                0x080057b0       0x82 build/../../libmaple/libmaple/timer.o
 *fill*         0x08005832        0x2 00
 .text.__irq_tim5
                0x08005834        0xc build/../../libmaple/libmaple/timer.o
                0x08005834                __irq_tim5
 .text.__irq_tim4
                0x08005840        0xc build/../../libmaple/libmaple/timer.o
                0x08005840                __irq_tim4
 .text.__irq_tim3
                0x0800584c        0xc build/../../libmaple/libmaple/timer.o
                0x0800584c                __irq_tim3
 .text.__irq_tim2
                0x08005858        0xc build/../../libmaple/libmaple/timer.o
                0x08005858                __irq_tim2
 .text.dispatch_basic
                0x08005864        0x8 build/../../libmaple/libmaple/timer.o
 .text.__irq_tim7
                0x0800586c        0xc build/../../libmaple/libmaple/timer.o
                0x0800586c                __irq_tim7
 .text.__irq_tim6
                0x08005878        0xc build/../../libmaple/libmaple/timer.o
                0x08005878                __irq_tim6
 .text.bb_perip
                0x08005884        0xc build/../../libmaple/libmaple/timer.o
 .text.timer_attach_interrupt
                0x08005890       0xb8 build/../../libmaple/libmaple/timer.o
                0x08005890                timer_attach_interrupt
 .text.timer_disable_irq
                0x08005948       0x10 build/../../libmaple/libmaple/timer.o
 .text.timer_detach_interrupt
                0x08005958       0x14 build/../../libmaple/libmaple/timer.o
                0x08005958                timer_detach_interrupt
 .text.timer_cc_enable
                0x0800596c       0x14 build/../../libmaple/libmaple/timer.o
 .text.timer_set_mode
                0x08005980       0x90 build/../../libmaple/libmaple/timer.o
                0x08005980                timer_set_mode
 .text.rb_remove
                0x08005a10       0x1a build/../../libmaple/libmaple/usart.o
 .text.usart_set_baud_rate
                0x08005a2a       0x34 build/../../libmaple/libmaple/usart.o
                0x08005a2a                usart_set_baud_rate
 .text.usart_disable
                0x08005a5e       0x22 build/../../libmaple/libmaple/usart.o
                0x08005a5e                usart_disable
 .text.usart_foreach
                0x08005a80       0x38 build/../../libmaple/libmaple/usart.o
                0x08005a80                usart_foreach
 .text.usart_tx
                0x08005ab8       0x1c build/../../libmaple/libmaple/usart.o
                0x08005ab8                usart_tx
 .text.usart_putudec
                0x08005ad4       0x44 build/../../libmaple/libmaple/usart.o
                0x08005ad4                usart_putudec
 .text.usart_irq
                0x08005b18       0x3c build/../../libmaple/libmaple/usart.o
 .text.__irq_usart1
                0x08005b54        0xc build/../../libmaple/libmaple/usart.o
                0x08005b54                __irq_usart1
 .text.__irq_usart2
                0x08005b60        0xc build/../../libmaple/libmaple/usart.o
                0x08005b60                __irq_usart2
 .text.__irq_usart3
                0x08005b6c        0xc build/../../libmaple/libmaple/usart.o
                0x08005b6c                __irq_usart3
 .text.__irq_uart4
                0x08005b78        0xc build/../../libmaple/libmaple/usart.o
                0x08005b78                __irq_uart4
 .text.__irq_uart5
                0x08005b84        0xc build/../../libmaple/libmaple/usart.o
                0x08005b84                __irq_uart5
 .text.usart_init
                0x08005b90       0x44 build/../../libmaple/libmaple/usart.o
                0x08005b90                usart_init
 .text.nvic_irq_enable
                0x08005bd4       0x1c build/../../libmaple/libmaple/util.o
 .text.usart_putc
                0x08005bf0       0x1a build/../../libmaple/libmaple/util.o
 .text.usart_putstr
                0x08005c0a       0x1a build/../../libmaple/libmaple/util.o
 .text._enable_error_usart
                0x08005c24       0x34 build/../../libmaple/libmaple/util.o
                0x08005c24                _enable_error_usart
 .text.T.15     0x08005c58       0x10 build/../../libmaple/libmaple/util.o
 .text.throb    0x08005c68       0x4c build/../../libmaple/libmaple/util.o
                0x08005c68                throb
 .text.__error  0x08005cb4       0x48 build/../../libmaple/libmaple/util.o
                0x08005cb4                __error
 .text._fail    0x08005cfc       0x68 build/../../libmaple/libmaple/util.o
                0x08005cfc                _fail
 .text.adc_disable
                0x08005d64       0x12 build/../../libmaple/libmaple/util.o
 *fill*         0x08005d76        0x2 00
 .text.usb_clear_ctr_rx
                0x08005d78       0x18 build/../../libmaple/libmaple/usb/usb.o
 .text.usb_clear_ctr_tx
                0x08005d90       0x18 build/../../libmaple/libmaple/usb/usb.o
 .text.usbSuspend
                0x08005da8       0x24 build/../../libmaple/libmaple/usb/usb.o
                0x08005da8                usbSuspend
 .text.usbResumeInit
                0x08005dcc       0x1c build/../../libmaple/libmaple/usb/usb.o
                0x08005dcc                usbResumeInit
 .text.usbResume
                0x08005de8       0x90 build/../../libmaple/libmaple/usb/usb.o
                0x08005de8                usbResume
 .text.usbIsConfigured
                0x08005e78       0x14 build/../../libmaple/libmaple/usb/usb.o
                0x08005e78                usbIsConfigured
 .text.usbIsConnected
                0x08005e8c       0x14 build/../../libmaple/libmaple/usb/usb.o
                0x08005e8c                usbIsConnected
 .text.handle_in0
                0x08005ea0        0x4 build/../../libmaple/libmaple/usb/usb.o
 .text.set_rx_tx_status0
                0x08005ea4       0x38 build/../../libmaple/libmaple/usb/usb.o
 .text.__irq_usb_lp_can_rx0
                0x08005edc      0x18c build/../../libmaple/libmaple/usb/usb.o
                0x08005edc                __irq_usb_lp_can_rx0
 .text.usb_pma_ptr
                0x08006068        0xc build/../../libmaple/libmaple/usb/usb_reg_map.o
 .text.usb_copy_to_pma
                0x08006074       0x44 build/../../libmaple/libmaple/usb/usb_reg_map.o
                0x08006074                usb_copy_to_pma
 .text.usb_set_ep_rx_count
                0x080060b8       0x40 build/../../libmaple/libmaple/usb/usb_reg_map.o
                0x080060b8                usb_set_ep_rx_count
 .text.usb_set_ep_rx_stat
                0x080060f8       0x24 build/../../libmaple/libmaple/usb/usb_cdcacm.o
 .text.usb_set_ep_tx_stat
                0x0800611c       0x24 build/../../libmaple/libmaple/usb/usb_cdcacm.o
 .text.usb_set_ep_type
                0x08006140       0x1c build/../../libmaple/libmaple/usb/usb_cdcacm.o
 .text.usb_btable_ptr
                0x0800615c       0x18 build/../../libmaple/libmaple/usb/usb_cdcacm.o
 .text.usb_set_ep_tx_addr
                0x08006174       0x12 build/../../libmaple/libmaple/usb/usb_cdcacm.o
 .text.usb_set_ep_rx_addr
                0x08006186       0x14 build/../../libmaple/libmaple/usb/usb_cdcacm.o
 *fill*         0x0800619a        0x2 00
 .text.vcomGetSetLineCoding
                0x0800619c       0x18 build/../../libmaple/libmaple/usb/usb_cdcacm.o
 .text.usbDataSetup
                0x080061b4       0x40 build/../../libmaple/libmaple/usb/usb_cdcacm.o
 .text.usbNoDataSetup
                0x080061f4       0x64 build/../../libmaple/libmaple/usb/usb_cdcacm.o
 .text.usbGetInterfaceSetting
                0x08006258        0xe build/../../libmaple/libmaple/usb/usb_cdcacm.o
 *fill*         0x08006266        0x2 00
 .text.usbGetStringDescriptor
                0x08006268       0x20 build/../../libmaple/libmaple/usb/usb_cdcacm.o
 .text.usbGetConfigDescriptor
                0x08006288        0xc build/../../libmaple/libmaple/usb/usb_cdcacm.o
 .text.usbGetDeviceDescriptor
                0x08006294        0xc build/../../libmaple/libmaple/usb/usb_cdcacm.o
 .text.usbInit  0x080062a0       0x44 build/../../libmaple/libmaple/usb/usb_cdcacm.o
 .text.usbReset
                0x080062e4      0x104 build/../../libmaple/libmaple/usb/usb_cdcacm.o
 .text.usb_cdcacm_tx
                0x080063e8       0x44 build/../../libmaple/libmaple/usb/usb_cdcacm.o
                0x080063e8                usb_cdcacm_tx
 .text.Standard_GetConfiguration
                0x0800642c       0x28 build/../../libmaple/libmaple/usb/usb_lib/usb_core.o
                0x0800642c                Standard_GetConfiguration
 .text.Standard_SetConfiguration
                0x08006454       0x38 build/../../libmaple/libmaple/usb/usb_lib/usb_core.o
                0x08006454                Standard_SetConfiguration
 .text.Standard_GetInterface
                0x0800648c       0x28 build/../../libmaple/libmaple/usb/usb_lib/usb_core.o
                0x0800648c                Standard_GetInterface
 .text.Standard_SetInterface
                0x080064b4       0x48 build/../../libmaple/libmaple/usb/usb_lib/usb_core.o
                0x080064b4                Standard_SetInterface
 .text.Standard_GetStatus
                0x080064fc       0xa4 build/../../libmaple/libmaple/usb/usb_lib/usb_core.o
                0x080064fc                Standard_GetStatus
 .text.Standard_SetEndPointFeature
                0x080065a0       0x84 build/../../libmaple/libmaple/usb/usb_lib/usb_core.o
                0x080065a0                Standard_SetEndPointFeature
 .text.Standard_SetDeviceFeature
                0x08006624       0x24 build/../../libmaple/libmaple/usb/usb_lib/usb_core.o
                0x08006624                Standard_SetDeviceFeature
 .text.Standard_GetDescriptorData
                0x08006648       0x1c build/../../libmaple/libmaple/usb/usb_lib/usb_core.o
                0x08006648                Standard_GetDescriptorData
 .text.SetDeviceAddress
                0x08006664       0x44 build/../../libmaple/libmaple/usb/usb_lib/usb_core.o
                0x08006664                SetDeviceAddress
 .text.NOP_Process
                0x080066a8        0x2 build/../../libmaple/libmaple/usb/usb_lib/usb_core.o
                0x080066a8                NOP_Process
 *fill*         0x080066aa        0x2 00
 .text.Post0_Process
                0x080066ac       0x44 build/../../libmaple/libmaple/usb/usb_lib/usb_core.o
                0x080066ac                Post0_Process
 .text.Out0_Process
                0x080066f0       0xd4 build/../../libmaple/libmaple/usb/usb_lib/usb_core.o
                0x080066f0                Out0_Process
 .text.DataStageIn
                0x080067c4       0xac build/../../libmaple/libmaple/usb/usb_lib/usb_core.o
 .text.In0_Process
                0x08006870       0x60 build/../../libmaple/libmaple/usb/usb_lib/usb_core.o
                0x08006870                In0_Process
 .text.Standard_ClearFeature
                0x080068d0       0xd4 build/../../libmaple/libmaple/usb/usb_lib/usb_core.o
                0x080068d0                Standard_ClearFeature
 .text.Setup0_Process
                0x080069a4      0x304 build/../../libmaple/libmaple/usb/usb_lib/usb_core.o
                0x080069a4                Setup0_Process
 .text.UserToPMABufferCopy
                0x08006ca8       0x2e build/../../libmaple/libmaple/usb/usb_lib/usb_mem.o
                0x08006ca8                UserToPMABufferCopy
 .text.PMAToUserBufferCopy
                0x08006cd6       0x24 build/../../libmaple/libmaple/usb/usb_lib/usb_mem.o
                0x08006cd6                PMAToUserBufferCopy
 .text.SetEPTxStatus
                0x08006cfa       0x2c build/../../libmaple/libmaple/usb/usb_lib/usb_regs.o
                0x08006cfa                SetEPTxStatus
 .text.ClearDTOG_RX
                0x08006d26       0x24 build/../../libmaple/libmaple/usb/usb_lib/usb_regs.o
                0x08006d26                ClearDTOG_RX
 .text.ClearDTOG_TX
                0x08006d4a       0x24 build/../../libmaple/libmaple/usb/usb_lib/usb_regs.o
                0x08006d4a                ClearDTOG_TX
 *fill*         0x08006d6e        0x2 00
 .text.GetEPTxAddr
                0x08006d70       0x1c build/../../libmaple/libmaple/usb/usb_lib/usb_regs.o
                0x08006d70                GetEPTxAddr
 .text.GetEPRxAddr
                0x08006d8c       0x1c build/../../libmaple/libmaple/usb/usb_lib/usb_regs.o
                0x08006d8c                GetEPRxAddr
 .text.SetEPTxCount
                0x08006da8       0x1c build/../../libmaple/libmaple/usb/usb_lib/usb_regs.o
                0x08006da8                SetEPTxCount
 .text.SetEPRxCount
                0x08006dc4       0x40 build/../../libmaple/libmaple/usb/usb_lib/usb_regs.o
                0x08006dc4                SetEPRxCount
 .text.ByteSwap
                0x08006e04        0xa build/../../libmaple/libmaple/usb/usb_lib/usb_regs.o
                0x08006e04                ByteSwap
 *fill*         0x08006e0e        0x2 00
 .text          0x08006e10       0x60 build/../../libmaple/libmaple/exc.o
                0x08006e10                __exc_nmi
                0x08006e14                __exc_hardfault
                0x08006e18                __exc_memmanage
                0x08006e1c                __exc_busfault
                0x08006e20                __exc_usagefault
 .text._ZN5Print5writeEPKc
                0x08006e70       0x1c build/../../libmaple/wirish/Print.o
                0x08006e70                _ZN5Print5writeEPKc
 .text._ZN5Print5writeEPKvj
                0x08006e8c       0x20 build/../../libmaple/wirish/Print.o
                0x08006e8c                _ZN5Print5writeEPKvj
 .text._ZN5Print5printEc
                0x08006eac        0xa build/../../libmaple/wirish/Print.o
                0x08006eac                _ZN5Print5printEc
 .text._ZN5Print5printEPKc
                0x08006eb6        0xa build/../../libmaple/wirish/Print.o
                0x08006eb6                _ZN5Print5printEPKc
 .text._ZN5Print7printlnEv
                0x08006ec0       0x16 build/../../libmaple/wirish/Print.o
                0x08006ec0                _ZN5Print7printlnEv
 .text._ZN5Print7printlnEPKc
                0x08006ed6       0x12 build/../../libmaple/wirish/Print.o
                0x08006ed6                _ZN5Print7printlnEPKc
 .text._ZN5Print11printNumberEyh
                0x08006ee8       0x7c build/../../libmaple/wirish/Print.o
                0x08006ee8                _ZN5Print11printNumberEyh
 .text._ZN5Print5printExi
                0x08006f64       0x40 build/../../libmaple/wirish/Print.o
                0x08006f64                _ZN5Print5printExi
 .text._ZN5Print5printEii
                0x08006fa4       0x10 build/../../libmaple/wirish/Print.o
                0x08006fa4                _ZN5Print5printEii
 .text._ZN5Print7printlnEii
                0x08006fb4       0x12 build/../../libmaple/wirish/Print.o
                0x08006fb4                _ZN5Print7printlnEii
 *fill*         0x08006fc6        0x2 00
 .text._GLOBAL__I__Z9boardInitv
                0x08006fc8      0x170 build/../../libmaple/wirish/boards/maple_RET6.o
 .text._ZN5PrintC2Ev
                0x08007138        0xc build/../../libmaple/wirish/comm/HardwareSerial.o
                0x08007138                _ZN5PrintC2Ev
 .text._ZN14HardwareSerialC1EP9usart_devhhj
                0x08007144       0x24 build/../../libmaple/wirish/comm/HardwareSerial.o
                0x08007144                _ZN14HardwareSerialC1EP9usart_devhhj
 .text._ZN14HardwareSerial5writeEh
                0x08007168       0x1a build/../../libmaple/wirish/comm/HardwareSerial.o
                0x08007168                _ZN14HardwareSerial5writeEh
 *fill*         0x08007182        0x2 00
 .text._GLOBAL__I_Serial1
                0x08007184       0x58 build/../../libmaple/wirish/comm/HardwareSerial.o
 .text._ZN13HardwareTimer17setPrescaleFactorEj
                0x080071dc        0xc build/../../libmaple/wirish/HardwareTimer.o
                0x080071dc                _ZN13HardwareTimer17setPrescaleFactorEj
 .text._ZN13HardwareTimer11setOverflowEt
                0x080071e8        0x8 build/../../libmaple/wirish/HardwareTimer.o
                0x080071e8                _ZN13HardwareTimer11setOverflowEt
 .text._ZN13HardwareTimer8setCountEt
                0x080071f0       0x12 build/../../libmaple/wirish/HardwareTimer.o
                0x080071f0                _ZN13HardwareTimer8setCountEt
 .text._ZN13HardwareTimer10setCompareEit
                0x08007202       0x1a build/../../libmaple/wirish/HardwareTimer.o
                0x08007202                _ZN13HardwareTimer10setCompareEit
 .text._ZN13HardwareTimer15attachInterruptEiPFvvE
                0x0800721c        0x8 build/../../libmaple/wirish/HardwareTimer.o
                0x0800721c                _ZN13HardwareTimer15attachInterruptEiPFvvE
 .text._ZN13HardwareTimer7setModeEi10timer_mode
                0x08007224        0x8 build/../../libmaple/wirish/HardwareTimer.o
                0x08007224                _ZN13HardwareTimer7setModeEi10timer_mode
 .text._ZN13HardwareTimerC1Eh
                0x0800722c       0x80 build/../../libmaple/wirish/HardwareTimer.o
                0x0800722c                _ZN13HardwareTimerC1Eh
 .text._GLOBAL__I__ZN13HardwareTimerC2Eh
                0x080072ac       0x68 build/../../libmaple/wirish/HardwareTimer.o
 .text.T.16     0x08007314        0x8 build/../../libmaple/wirish/HardwareTimer.o
 .text._ZN13HardwareTimer7refreshEv
                0x0800731c       0x12 build/../../libmaple/wirish/HardwareTimer.o
                0x0800731c                _ZN13HardwareTimer7refreshEv
 .text._ZN13HardwareTimer6resumeEv
                0x0800732e       0x10 build/../../libmaple/wirish/HardwareTimer.o
                0x0800732e                _ZN13HardwareTimer6resumeEv
 .text._ZN13HardwareTimer5pauseEv
                0x0800733e       0x10 build/../../libmaple/wirish/HardwareTimer.o
                0x0800733e                _ZN13HardwareTimer5pauseEv
 *fill*         0x0800734e        0x2 00
 .text._ZN9USBSerialC1Ev
                0x08007350       0x14 build/../../libmaple/wirish/usb_serial.o
                0x08007350                _ZN9USBSerialC1Ev
 .text._ZN9USBSerial5writeEh
                0x08007364       0x14 build/../../libmaple/wirish/usb_serial.o
                0x08007364                _ZN9USBSerial5writeEh
 .text._ZN9USBSerial5writeEPKvj
                0x08007378       0x58 build/../../libmaple/wirish/usb_serial.o
                0x08007378                _ZN9USBSerial5writeEPKvj
 .text._ZN9USBSerial5writeEPKc
                0x080073d0       0x1a build/../../libmaple/wirish/usb_serial.o
                0x080073d0                _ZN9USBSerial5writeEPKc
 *fill*         0x080073ea        0x2 00
 .text._GLOBAL__I__ZN9USBSerialC2Ev
                0x080073ec        0xc build/../../libmaple/wirish/usb_serial.o
 .text.__cxa_pure_virtual
                0x080073f8        0x2 build/../../libmaple/wirish/cxxabi-compat.o
                0x080073f8                __cxa_pure_virtual
 *fill*         0x080073fa        0x2 00
 .text._Z8pwmWriteht
                0x080073fc       0x30 build/../../libmaple/wirish/pwm.o
                0x080073fc                _Z8pwmWriteht
 .text._Z12digitalWritehh
                0x0800742c       0x30 build/../../libmaple/wirish/wirish_digital.o
                0x0800742c                _Z12digitalWritehh
 .text._Z7pinModeh13WiringPinMode
                0x0800745c       0x88 build/../../libmaple/wirish/wirish_digital.o
                0x0800745c                _Z7pinModeh13WiringPinMode
 .text._ZN7TwoWireC1Ev
                0x080074e4       0x20 build/../../libmaple/libraries/Wire/Wire.o
                0x080074e4                _ZN7TwoWireC1Ev
 .text._GLOBAL__I_i2c_delay
                0x08007504        0xc build/../../libmaple/libraries/Wire/Wire.o
 .text.__exc_svc
                0x08007510       0x24 build/../../libmaple/libraries/FreeRTOS/utility/port.o
                0x08007510                __exc_svc
 .text.__exc_pendsv
                0x08007534       0x40 build/../../libmaple/libraries/FreeRTOS/utility/port.o
                0x08007534                __exc_pendsv
 .text.vTaskSwitchContext
                0x08007574       0xf0 build/../../libmaple/libraries/FreeRTOS/utility/tasks.o
                0x08007574                vTaskSwitchContext
 .text.vApplicationStackOverflowHook
                0x08007664        0x2 build/../../libmaple/libraries/FreeRTOS/MapleFreeRTOS.o
                0x08007664                vApplicationStackOverflowHook
 .text._Z11setupIOPinsv
                0x08007666       0x1e build/IO.o
                0x08007666                _Z11setupIOPinsv
 .text._Z9Linearizes
                0x08007684       0x2e build/Infrareds.o
                0x08007684                _Z9Linearizes
 *fill*         0x080076b2        0x2 00
 .text._Z20getRightFrontIRRangev
                0x080076b4       0x10 build/Infrareds.o
                0x080076b4                _Z20getRightFrontIRRangev
 .text._Z20getFrontRightIRRangev
                0x080076c4       0x10 build/Infrareds.o
                0x080076c4                _Z20getFrontRightIRRangev
 .text._Z19getFrontLeftIRRangev
                0x080076d4       0x10 build/Infrareds.o
                0x080076d4                _Z19getFrontLeftIRRangev
 .text._Z19getLeftFrontIRRangev
                0x080076e4       0x10 build/Infrareds.o
                0x080076e4                _Z19getLeftFrontIRRangev
 .text._Z8sampleIRv
                0x080076f4      0x180 build/Infrareds.o
                0x080076f4                _Z8sampleIRv
 .text._Z11setupIRPinsv
                0x08007874       0x36 build/Infrareds.o
                0x08007874                _Z11setupIRPinsv
 *fill*         0x080078aa        0x2 00
 .text._GLOBAL__I_infraredOneBuffer
                0x080078ac        0xc build/Infrareds.o
 .text._Z12setupIRTimerv
                0x080078b8       0x5c build/Infrareds.o
                0x080078b8                _Z12setupIRTimerv
 .text._Z14setupIRSensorsv
                0x08007914        0xe build/Infrareds.o
                0x08007914                _Z14setupIRSensorsv
 .text._Z12setupSensorsv
                0x08007922       0x12 build/Sensors.o
                0x08007922                _Z12setupSensorsv
 .text._ZL6microsv
                0x08007934       0x30 build/Ultrasonics.o
 .text._Z21getRangeUltrasonicOnev
                0x08007964        0xc build/Ultrasonics.o
                0x08007964                _Z21getRangeUltrasonicOnev
 .text._Z21getRangeUltrasonicTwov
                0x08007970        0xc build/Ultrasonics.o
                0x08007970                _Z21getRangeUltrasonicTwov
 .text._Z17sampleUltrasonicsv
                0x0800797c       0xb4 build/Ultrasonics.o
                0x0800797c                _Z17sampleUltrasonicsv
 .text._Z20setupUltrasonicTimerv
                0x08007a30       0x5c build/Ultrasonics.o
                0x08007a30                _Z20setupUltrasonicTimerv
 .text._Z19setupUltrasonicPinsv
                0x08007a8c       0x44 build/Ultrasonics.o
                0x08007a8c                _Z19setupUltrasonicPinsv
 .text._Z16setupUltrasonicsv
                0x08007ad0        0xe build/Ultrasonics.o
                0x08007ad0                _Z16setupUltrasonicsv
 *fill*         0x08007ade        0x2 00
 .text._GLOBAL__I_mostRecentUltrasonicVoltageOne
                0x08007ae0        0xc build/Ultrasonics.o
 .text.main     0x08007aec       0xc4 build/main.o
                0x08007aec                main
 .text._Z21setupDriveControlPinsv
                0x08007bb0       0x66 build/DriveControl.o
                0x08007bb0                _Z21setupDriveControlPinsv
 .text._Z16setupMiceSensorsv
                0x08007c16        0x2 build/MiceSensors.o
                0x08007c16                _Z16setupMiceSensorsv
 .text          0x08007c18       0x2c /Users/alexanderryan/Programming/SmartMouse/MapleCode/arm/bin/../lib/gcc/arm-none-eabi/4.4.1/thumb2/libgcc.a(_aeabi_uldivmod.o)
                0x08007c18                __aeabi_uldivmod
 .text          0x08007c44       0x58 /Users/alexanderryan/Programming/SmartMouse/MapleCode/arm/bin/../lib/gcc/arm-none-eabi/4.4.1/thumb2/libgcc.a(bpabi.o)
                0x08007c44                __gnu_uldivmod_helper
                0x08007c70                __gnu_ldivmod_helper
 .text          0x08007c9c        0x4 /Users/alexanderryan/Programming/SmartMouse/MapleCode/arm/bin/../lib/gcc/arm-none-eabi/4.4.1/thumb2/libgcc.a(_dvmd_tls.o)
                0x08007c9c                __aeabi_ldiv0
                0x08007c9c                __aeabi_idiv0
 .text          0x08007ca0      0x364 /Users/alexanderryan/Programming/SmartMouse/MapleCode/arm/bin/../lib/gcc/arm-none-eabi/4.4.1/thumb2/libgcc.a(_divdi3.o)
                0x08007ca0                __divdi3
 .text          0x08008004      0x300 /Users/alexanderryan/Programming/SmartMouse/MapleCode/arm/bin/../lib/gcc/arm-none-eabi/4.4.1/thumb2/libgcc.a(_udivdi3.o)
                0x08008004                __udivdi3
 *fill*         0x08008304        0x4 00
 .text          0x08008308      0x278 /Users/alexanderryan/Programming/SmartMouse/MapleCode/arm/bin/../lib/gcc/arm-none-eabi/4.4.1/thumb2/libgcc.a(_udivsi3.o)
                0x08008308                __udivsi3
                0x08008308                __aeabi_uidiv
                0x08008564                __aeabi_uidivmod
 .text.memcmp   0x08008580       0x22 /Users/alexanderryan/Programming/SmartMouse/MapleCode/arm/bin/../lib/gcc/arm-none-eabi/4.4.1/../../../../arm-none-eabi/lib/thumb2/libc.a(lib_a-memcmp.o)
                0x08008580                memcmp
 .text.strlen   0x080085a2       0x10 /Users/alexanderryan/Programming/SmartMouse/MapleCode/arm/bin/../lib/gcc/arm-none-eabi/4.4.1/../../../../arm-none-eabi/lib/thumb2/libc.a(lib_a-strlen.o)
                0x080085a2                strlen
 .text          0x080085b2        0x2 ../../libmaple/support/ld/libcs3_stm32_high_density.a(stm32_isrs.o)
                0x080085b2                __irq_rcc
                0x080085b2                __exc_debug_monitor
                0x080085b2                __irq_adc
                0x080085b2                __irq_can_rx1
                0x080085b2                __irq_spi2
                0x080085b2                __irq_can_sce
                0x080085b2                __irq_pvd
                0x080085b2                __irq_tamper
                0x080085b2                __default_handler
                0x080085b2                __irq_wwdg
                0x080085b2                __stm32reservedexception10
                0x080085b2                __irq_flash
                0x080085b2                __stm32reservedexception13
                0x080085b2                __irq_rtc
                0x080085b2                __irq_spi1
                0x080085b2                __stm32reservedexception7
                0x080085b2                __irq_usb_hp_can_tx
                0x080085b2                __irq_rtcalarm
                0x080085b2                __stm32reservedexception8
                0x080085b2                __irq_usbwakeup
                0x080085b2                __stm32reservedexception9
 .text          0x080085b4       0x10 ../../libmaple/support/ld/libcs3_stm32_high_density.a(start.o)
                0x080085b4                _start
 .text          0x080085c4       0xf4 ../../libmaple/support/ld/libcs3_stm32_high_density.a(start_c.o)
                0x080085c4                __cs3_start_c
 .text.__libc_init_array
                0x080086b8       0x4c /Users/alexanderryan/Programming/SmartMouse/MapleCode/arm/bin/../lib/gcc/arm-none-eabi/4.4.1/../../../../arm-none-eabi/lib/thumb2/libc.a(lib_a-init.o)
                0x080086b8                __libc_init_array
 *(.plt)
 *(.gnu.warning)
 *(.glue_7t)
 .glue_7t       0x00000000        0x0 linker stubs
 *(.glue_7)
 .glue_7        0x00000000        0x0 linker stubs
 *(.vfp11_veneer)
 .vfp11_veneer  0x00000000        0x0 linker stubs
 *(.ARM.extab* .gnu.linkonce.armextab.*)
 *(.gcc_except_table)
 *(.eh_frame_hdr)
 *(.eh_frame)
                0x08008704                . = ALIGN (0x4)
 *(.init)
 .init          0x08008704        0x4 /Users/alexanderryan/Programming/SmartMouse/MapleCode/arm/bin/../lib/gcc/arm-none-eabi/4.4.1/thumb2/crti.o
                0x08008704                _init
 .init          0x08008708        0x8 /Users/alexanderryan/Programming/SmartMouse/MapleCode/arm/bin/../lib/gcc/arm-none-eabi/4.4.1/thumb2/crtn.o
                0x08008710                . = ALIGN (0x4)
                0x08008710                __preinit_array_start = .
 *(.preinit_array)
                0x08008710                __preinit_array_end = .
                0x08008710                . = ALIGN (0x4)
                0x08008710                __init_array_start = .
 *(SORT(.init_array.*))
 *(.init_array)
 .init_array    0x08008710        0x4 /Users/alexanderryan/Programming/SmartMouse/MapleCode/arm/bin/../lib/gcc/arm-none-eabi/4.4.1/thumb2/crtbegin.o
 .init_array    0x08008714        0x4 build/../../libmaple/wirish/boards/maple_RET6.o
 .init_array    0x08008718        0x4 build/../../libmaple/wirish/comm/HardwareSerial.o
 .init_array    0x0800871c        0x4 build/../../libmaple/wirish/HardwareTimer.o
 .init_array    0x08008720        0x4 build/../../libmaple/wirish/usb_serial.o
 .init_array    0x08008724        0x4 build/../../libmaple/libraries/Wire/Wire.o
 .init_array    0x08008728        0x4 build/Infrareds.o
 .init_array    0x0800872c        0x4 build/Ultrasonics.o
                0x08008730                __init_array_end = .
                0x08008730                . = ALIGN (0x4)
 *crtbegin.o(.ctors)
 *(EXCLUDE_FILE(*crtend.o) .ctors)
 *(SORT(.ctors.*))
 *crtend.o(.ctors)
                0x08008730                . = ALIGN (0x4)
 *(.fini)
 .fini          0x08008730        0x4 /Users/alexanderryan/Programming/SmartMouse/MapleCode/arm/bin/../lib/gcc/arm-none-eabi/4.4.1/thumb2/crti.o
                0x08008730                _fini
 .fini          0x08008734        0x8 /Users/alexanderryan/Programming/SmartMouse/MapleCode/arm/bin/../lib/gcc/arm-none-eabi/4.4.1/thumb2/crtn.o
                0x0800873c                . = ALIGN (0x4)
                0x0800873c                __fini_array_start = .
 *(.fini_array)
 .fini_array    0x0800873c        0x4 /Users/alexanderryan/Programming/SmartMouse/MapleCode/arm/bin/../lib/gcc/arm-none-eabi/4.4.1/thumb2/crtbegin.o
 *(SORT(.fini_array.*))
                0x08008740                __fini_array_end = .
 *crtbegin.o(.dtors)
 *(EXCLUDE_FILE(*crtend.o) .dtors)
 *(SORT(.dtors.*))
 *crtend.o(.dtors)
                0x08008740                . = ALIGN (0x4)
                0x08008740                __cs3_regions = .
                0x08008740        0x4 LONG 0x0
                0x08008744        0x4 LONG 0x8008a50 __cs3_region_init_ram
                0x08008748        0x4 LONG 0x20000c00 __cs3_region_start_ram
                0x0800874c        0x4 LONG 0x798 __cs3_region_init_size_ram
                0x08008750        0x4 LONG 0x6a0 __cs3_region_zero_size_ram

.v4_bx          0x08008754        0x0
 .v4_bx         0x00000000        0x0 linker stubs

.rodata         0x08008758      0x2ed
 *(.rodata .rodata.* .gnu.linkonce.r.*)
 .rodata.GPIOA  0x08008758        0x4 build/../../libmaple/libmaple/gpio.o
                0x08008758                GPIOA
 .rodata.GPIOB  0x0800875c        0x4 build/../../libmaple/libmaple/gpio.o
                0x0800875c                GPIOB
 .rodata.GPIOC  0x08008760        0x4 build/../../libmaple/libmaple/gpio.o
                0x08008760                GPIOC
 .rodata.GPIOD  0x08008764        0x4 build/../../libmaple/libmaple/gpio.o
                0x08008764                GPIOD
 .rodata.enable_regs.1523
                0x08008768        0xc build/../../libmaple/libmaple/rcc.o
 .rodata.rcc_dev_table
                0x08008774       0x50 build/../../libmaple/libmaple/rcc.o
 .rodata.str1.1
                0x080087c4       0x57 build/../../libmaple/libmaple/timer.o
 .rodata.str1.1
                0x0800881b       0x3f build/../../libmaple/libmaple/util.o
                                 0x42 (size before relaxing)
 .rodata.str1.1
                0x0800885a       0x36 build/../../libmaple/libmaple/usb/usb.o
 .rodata.usbVcomDescriptor_iProduct
                0x08008890       0x14 build/../../libmaple/libmaple/usb/usb_cdcacm.o
                0x08008890                usbVcomDescriptor_iProduct
 .rodata.usbVcomDescriptor_Device
                0x080088a4       0x14 build/../../libmaple/libmaple/usb/usb_cdcacm.o
                0x080088a4                usbVcomDescriptor_Device
 .rodata.usbVcomDescriptor_Config
                0x080088b8       0x44 build/../../libmaple/libmaple/usb/usb_cdcacm.o
                0x080088b8                usbVcomDescriptor_Config
 .rodata.usbVcomDescriptor_iManufacturer
                0x080088fc       0x14 build/../../libmaple/libmaple/usb/usb_cdcacm.o
                0x080088fc                usbVcomDescriptor_iManufacturer
 .rodata.usbVcomDescriptor_LangID
                0x08008910        0x4 build/../../libmaple/libmaple/usb/usb_cdcacm.o
                0x08008910                usbVcomDescriptor_LangID
 *fill*         0x08008914        0x4 00
 .rodata._ZTV5Print
                0x08008918       0x18 build/../../libmaple/wirish/Print.o
                0x08008918                _ZTV5Print
 .rodata._ZTV14HardwareSerial
                0x08008930       0x18 build/../../libmaple/wirish/comm/HardwareSerial.o
                0x08008930                _ZTV14HardwareSerial
 .rodata.str1.1
                0x08008948       0x28 build/../../libmaple/wirish/HardwareTimer.o
                                 0x2a (size before relaxing)
 .rodata._ZTV9USBSerial
                0x08008970       0x18 build/../../libmaple/wirish/usb_serial.o
                0x08008970                _ZTV9USBSerial
 .rodata.str1.1
                0x08008988       0x29 build/../../libmaple/wirish/wirish_digital.o
                                 0x2b (size before relaxing)
 *fill*         0x080089b1        0x3 00
 .rodata.ucExpectedStackBytes.3388
                0x080089b4       0x14 build/../../libmaple/libraries/FreeRTOS/utility/tasks.o
 .rodata.str1.1
                0x080089c8       0x7d build/main.o
                0x08008a45                __exidx_start = .

.ARM.exidx      0x08008a48        0x8
 *(.ARM.exidx* .gnu.linkonce.armexidx.*)
 .ARM.exidx     0x08008a48        0x8 /Users/alexanderryan/Programming/SmartMouse/MapleCode/arm/bin/../lib/gcc/arm-none-eabi/4.4.1/thumb2/libgcc.a(_divdi3.o)
 .ARM.exidx     0x08008a50        0x0 /Users/alexanderryan/Programming/SmartMouse/MapleCode/arm/bin/../lib/gcc/arm-none-eabi/4.4.1/thumb2/libgcc.a(_udivdi3.o)
                                  0x8 (size before relaxing)
 .ARM.exidx     0x08008a50        0x0 ../../libmaple/support/ld/libcs3_stm32_high_density.a(start.o)
                                  0x8 (size before relaxing)
                0x08008a50                __exidx_end = .

.text.align     0x08008a50        0x0
                0x08008a50                . = ALIGN (0x8)
                0x08008a50                _etext = .

.USER_FLASH
 *(.USER_FLASH)

.data           0x20000c00      0x798 load address 0x08008a50
                0x08005000                __cs3_region_start_ram = DEFINED (_FLASH_BUILD)?.:__text_start
 *(.got.plt)
 *(.got)
 *(.data .data.* .gnu.linkonce.d.*)
 .data.adc1     0x20000c00        0x8 build/../../libmaple/libmaple/adc.o
 .data.adc2     0x20000c08        0x8 build/../../libmaple/libmaple/adc.o
 .data.adc3     0x20000c10        0x8 build/../../libmaple/libmaple/adc.o
                0x20000c10                adc3
 .data.ADC1     0x20000c18        0x4 build/../../libmaple/libmaple/adc.o
                0x20000c18                ADC1
 .data.ADC2     0x20000c1c        0x4 build/../../libmaple/libmaple/adc.o
                0x20000c1c                ADC2
 .data.ADC3     0x20000c20        0x4 build/../../libmaple/libmaple/adc.o
                0x20000c20                ADC3
 .data.dma1     0x20000c24       0x40 build/../../libmaple/libmaple/dma.o
 .data.dma2     0x20000c64       0x30 build/../../libmaple/libmaple/dma.o
 .data.DMA1     0x20000c94        0x4 build/../../libmaple/libmaple/dma.o
                0x20000c94                DMA1
 .data.DMA2     0x20000c98        0x4 build/../../libmaple/libmaple/dma.o
                0x20000c98                DMA2
 .data.exti_channels
                0x20000c9c       0x80 build/../../libmaple/libmaple/exti.o
 .data.gpioa    0x20000d1c        0x8 build/../../libmaple/libmaple/gpio.o
                0x20000d1c                gpioa
 .data.gpiob    0x20000d24        0x8 build/../../libmaple/libmaple/gpio.o
                0x20000d24                gpiob
 .data.gpioc    0x20000d2c        0x8 build/../../libmaple/libmaple/gpio.o
                0x20000d2c                gpioc
 .data.gpiod    0x20000d34        0x8 build/../../libmaple/libmaple/gpio.o
                0x20000d34                gpiod
 .data.i2c_dev1
                0x20000d3c       0x1c build/../../libmaple/libmaple/i2c.o
 .data.i2c_dev2
                0x20000d58       0x1c build/../../libmaple/libmaple/i2c.o
 .data.timer3   0x20000d74       0x24 build/../../libmaple/libmaple/timer.o
 .data.timer4   0x20000d98       0x24 build/../../libmaple/libmaple/timer.o
 .data.timer5   0x20000dbc       0x24 build/../../libmaple/libmaple/timer.o
 .data.timer6   0x20000de0        0xc build/../../libmaple/libmaple/timer.o
 .data.timer7   0x20000dec        0xc build/../../libmaple/libmaple/timer.o
 .data.timer8   0x20000df8       0x28 build/../../libmaple/libmaple/timer.o
 .data.TIMER1   0x20000e20        0x4 build/../../libmaple/libmaple/timer.o
                0x20000e20                TIMER1
 .data.TIMER2   0x20000e24        0x4 build/../../libmaple/libmaple/timer.o
                0x20000e24                TIMER2
 .data.TIMER3   0x20000e28        0x4 build/../../libmaple/libmaple/timer.o
                0x20000e28                TIMER3
 .data.TIMER4   0x20000e2c        0x4 build/../../libmaple/libmaple/timer.o
                0x20000e2c                TIMER4
 .data.TIMER5   0x20000e30        0x4 build/../../libmaple/libmaple/timer.o
                0x20000e30                TIMER5
 .data.TIMER6   0x20000e34        0x4 build/../../libmaple/libmaple/timer.o
                0x20000e34                TIMER6
 .data.TIMER7   0x20000e38        0x4 build/../../libmaple/libmaple/timer.o
                0x20000e38                TIMER7
 .data.TIMER8   0x20000e3c        0x4 build/../../libmaple/libmaple/timer.o
                0x20000e3c                TIMER8
 .data.timer1   0x20000e40       0x28 build/../../libmaple/libmaple/timer.o
 .data.timer2   0x20000e68       0x24 build/../../libmaple/libmaple/timer.o
 .data.uart4    0x20000e8c       0x50 build/../../libmaple/libmaple/usart.o
 .data.USART1   0x20000edc        0x4 build/../../libmaple/libmaple/usart.o
                0x20000edc                USART1
 .data.USART2   0x20000ee0        0x4 build/../../libmaple/libmaple/usart.o
                0x20000ee0                USART2
 .data.USART3   0x20000ee4        0x4 build/../../libmaple/libmaple/usart.o
                0x20000ee4                USART3
 .data.usart1   0x20000ee8       0x50 build/../../libmaple/libmaple/usart.o
 .data.usart2   0x20000f38       0x50 build/../../libmaple/libmaple/usart.o
 .data.usart3   0x20000f88       0x50 build/../../libmaple/libmaple/usart.o
 .data.uart5    0x20000fd8       0x50 build/../../libmaple/libmaple/usart.o
 .data.UART4    0x20001028        0x4 build/../../libmaple/libmaple/usart.o
                0x20001028                UART4
 .data.UART5    0x2000102c        0x4 build/../../libmaple/libmaple/usart.o
                0x2000102c                UART5
 .data.USBLIB   0x20001030        0x4 build/../../libmaple/libmaple/usb/usb.o
                0x20001030                USBLIB
 .data.usblib   0x20001034       0x10 build/../../libmaple/libmaple/usb/usb.o
 .data.Device_Descriptor
                0x20001044        0x8 build/../../libmaple/libmaple/usb/usb_cdcacm.o
                0x20001044                Device_Descriptor
 .data.Config_Descriptor
                0x2000104c        0x8 build/../../libmaple/libmaple/usb/usb_cdcacm.o
                0x2000104c                Config_Descriptor
 .data.maxNewBytes
                0x20001054        0x4 build/../../libmaple/libmaple/usb/usb_cdcacm.o
                0x20001054                maxNewBytes
 .data.line_coding
                0x20001058        0x8 build/../../libmaple/libmaple/usb/usb_cdcacm.o
                0x20001058                line_coding
 .data.String_Descriptor
                0x20001060       0x18 build/../../libmaple/libmaple/usb/usb_cdcacm.o
                0x20001060                String_Descriptor
 .data.Device_Property
                0x20001078       0x30 build/../../libmaple/libmaple/usb/usb_cdcacm.o
                0x20001078                Device_Property
 .data.Device_Table
                0x200010a8        0x4 build/../../libmaple/libmaple/usb/usb_cdcacm.o
                0x200010a8                Device_Table
 .data.PIN_MAP  0x200010ac      0x2c0 build/../../libmaple/wirish/boards/maple_RET6.o
                0x200010ac                PIN_MAP
 .data.i2c_delay
                0x2000136c        0x4 build/../../libmaple/libraries/Wire/Wire.o
                0x2000136c                i2c_delay
 .data.uxPreviousTask
                0x20001370        0x4 build/../../libmaple/libraries/FreeRTOS/utility/tasks.o
 .data.IROneBufferFront
                0x20001374        0x4 build/Infrareds.o
                0x20001374                IROneBufferFront
 .data.IRSixBufferFront
                0x20001378        0x4 build/Infrareds.o
                0x20001378                IRSixBufferFront
 .data.IRTwoBufferFront
                0x2000137c        0x4 build/Infrareds.o
                0x2000137c                IRTwoBufferFront
 .data.IRFiveBufferFront
                0x20001380        0x4 build/Infrareds.o
                0x20001380                IRFiveBufferFront
 .data.IRFourBufferFront
                0x20001384        0x4 build/Infrareds.o
                0x20001384                IRFourBufferFront
 .data.IRThreeBufferFront
                0x20001388        0x4 build/Infrareds.o
                0x20001388                IRThreeBufferFront
 .data.overSampleBits
                0x2000138c        0x1 build/Ultrasonics.o
                0x2000138c                overSampleBits
 .data.sampleUltraOneHuh
                0x2000138d        0x1 build/Ultrasonics.o
                0x2000138d                sampleUltraOneHuh
 *fill*         0x2000138e        0x2 00
 .data.doshit   0x20001390        0x4 build/main.o
                0x20001390                doshit
                [0x20001a38]                _lm_heap_start = DEFINED (_lm_heap_start)?_lm_heap_start:_end
                [0x20010000]                _lm_heap_end = DEFINED (_lm_heap_end)?_lm_heap_end:__cs3_stack
                0x20001398                . = ALIGN (0x8)
 *fill*         0x20001394        0x4 00
                0x20001398                _edata = .

.jcr            0x20001398        0x0 load address 0x080091e8
 .jcr           0x20001398        0x0 /Users/alexanderryan/Programming/SmartMouse/MapleCode/arm/bin/../lib/gcc/arm-none-eabi/4.4.1/thumb2/crtbegin.o

.bss            0x20001398      0x6a0 load address 0x080091e8
 *(.bss .bss.* .gnu.linkonce.b.*)
 .bss           0x20001398        0x1 /Users/alexanderryan/Programming/SmartMouse/MapleCode/arm/bin/../lib/gcc/arm-none-eabi/4.4.1/thumb2/crtbegin.o
 *fill*         0x20001399        0x3 00
 .bss.systick_user_callback
                0x2000139c        0x4 build/../../libmaple/libmaple/systick.o
 .bss.usart1_rb
                0x200013a0        0xc build/../../libmaple/libmaple/usart.o
 .bss.usart2_rb
                0x200013ac        0xc build/../../libmaple/libmaple/usart.o
 .bss.usart3_rb
                0x200013b8        0xc build/../../libmaple/libmaple/usart.o
 .bss.uart4_rb  0x200013c4        0xc build/../../libmaple/libmaple/usart.o
 .bss.uart5_rb  0x200013d0        0xc build/../../libmaple/libmaple/usart.o
 .bss.line_dtr_rts
                0x200013dc        0x1 build/../../libmaple/libmaple/usb/usb_cdcacm.o
                0x200013dc                line_dtr_rts
 *fill*         0x200013dd        0x3 00
 .bss.recvBufOut
                0x200013e0        0x4 build/../../libmaple/libmaple/usb/usb_cdcacm.o
                0x200013e0                recvBufOut
 .bss.reset_state
                0x200013e4        0x1 build/../../libmaple/libmaple/usb/usb_cdcacm.o
                0x200013e4                reset_state
 *fill*         0x200013e5        0x3 00
 .bss.countTx   0x200013e8        0x4 build/../../libmaple/libmaple/usb/usb_cdcacm.o
                0x200013e8                countTx
 .bss.last_request
                0x200013ec        0x1 build/../../libmaple/libmaple/usb/usb_cdcacm.o
                0x200013ec                last_request
 *fill*         0x200013ed        0x3 00
 .bss.recvBufIn
                0x200013f0        0x4 build/../../libmaple/libmaple/usb/usb_cdcacm.o
                0x200013f0                recvBufIn
 .bss.Data_Mul_MaxPacketSize
                0x200013f4        0x1 build/../../libmaple/libmaple/usb/usb_lib/usb_core.o
                0x200013f4                Data_Mul_MaxPacketSize
 *fill*         0x200013f5        0x3 00
 .bss.Serial1   0x200013f8       0x10 build/../../libmaple/wirish/comm/HardwareSerial.o
                0x200013f8                Serial1
 .bss.Serial2   0x20001408       0x10 build/../../libmaple/wirish/comm/HardwareSerial.o
                0x20001408                Serial2
 .bss.Serial3   0x20001418       0x10 build/../../libmaple/wirish/comm/HardwareSerial.o
                0x20001418                Serial3
 .bss.Timer1    0x20001428        0x4 build/../../libmaple/wirish/HardwareTimer.o
                0x20001428                Timer1
 .bss.Timer2    0x2000142c        0x4 build/../../libmaple/wirish/HardwareTimer.o
                0x2000142c                Timer2
 .bss.Timer3    0x20001430        0x4 build/../../libmaple/wirish/HardwareTimer.o
                0x20001430                Timer3
 .bss.Timer4    0x20001434        0x4 build/../../libmaple/wirish/HardwareTimer.o
                0x20001434                Timer4
 .bss.Timer5    0x20001438        0x4 build/../../libmaple/wirish/HardwareTimer.o
                0x20001438                Timer5
 .bss.Timer6    0x2000143c        0x4 build/../../libmaple/wirish/HardwareTimer.o
                0x2000143c                Timer6
 .bss.Timer7    0x20001440        0x4 build/../../libmaple/wirish/HardwareTimer.o
                0x20001440                Timer7
 .bss.Timer8    0x20001444        0x4 build/../../libmaple/wirish/HardwareTimer.o
                0x20001444                Timer8
 .bss.SerialUSB
                0x20001448        0x4 build/../../libmaple/wirish/usb_serial.o
                0x20001448                SerialUSB
 .bss.Wire      0x2000144c       0x48 build/../../libmaple/libraries/Wire/Wire.o
                0x2000144c                Wire
 .bss.uxTopReadyPriority
                0x20001494        0x4 build/../../libmaple/libraries/FreeRTOS/utility/tasks.o
 .bss.xTickCount
                0x20001498        0x4 build/../../libmaple/libraries/FreeRTOS/utility/tasks.o
 .bss.pxReadyTasksLists
                0x2000149c       0x64 build/../../libmaple/libraries/FreeRTOS/utility/tasks.o
 .bss.xTracing  0x20001500        0x4 build/../../libmaple/libraries/FreeRTOS/utility/tasks.o
 .bss.xMissedYield
                0x20001504        0x4 build/../../libmaple/libraries/FreeRTOS/utility/tasks.o
 .bss.pcTraceBuffer
                0x20001508        0x4 build/../../libmaple/libraries/FreeRTOS/utility/tasks.o
 .bss.pxCurrentTCB
                0x2000150c        0x4 build/../../libmaple/libraries/FreeRTOS/utility/tasks.o
                0x2000150c                pxCurrentTCB
 .bss.uxSchedulerSuspended
                0x20001510        0x4 build/../../libmaple/libraries/FreeRTOS/utility/tasks.o
 .bss.pcTraceBufferEnd
                0x20001514        0x4 build/../../libmaple/libraries/FreeRTOS/utility/tasks.o
 .bss.infraredFiveBuffer
                0x20001518       0xc8 build/Infrareds.o
                0x20001518                infraredFiveBuffer
 .bss.IRTimer   0x200015e0        0x4 build/Infrareds.o
                0x200015e0                IRTimer
 .bss.OverSampleBits
                0x200015e4        0x1 build/Infrareds.o
                0x200015e4                OverSampleBits
 *fill*         0x200015e5        0x3 00
 .bss.infraredOneBuffer
                0x200015e8       0xc8 build/Infrareds.o
                0x200015e8                infraredOneBuffer
 .bss.infraredTwoBuffer
                0x200016b0       0xc8 build/Infrareds.o
                0x200016b0                infraredTwoBuffer
 .bss.infraredFourBuffer
                0x20001778       0xc8 build/Infrareds.o
                0x20001778                infraredFourBuffer
 .bss.infraredSixBuffer
                0x20001840       0xc8 build/Infrareds.o
                0x20001840                infraredSixBuffer
 .bss.infraredThreeBuffer
                0x20001908       0xc8 build/Infrareds.o
                0x20001908                infraredThreeBuffer
 .bss.ultrasonicTimer
                0x200019d0        0x4 build/Ultrasonics.o
                0x200019d0                ultrasonicTimer
 .bss.mostRecentUltrasonicRangeOne
                0x200019d4        0x4 build/Ultrasonics.o
                0x200019d4                mostRecentUltrasonicRangeOne
 .bss.mostRecentOversampleReadingTwo
                0x200019d8        0x4 build/Ultrasonics.o
                0x200019d8                mostRecentOversampleReadingTwo
 .bss.mostRecentOversampleReadingOne
                0x200019dc        0x4 build/Ultrasonics.o
                0x200019dc                mostRecentOversampleReadingOne
 .bss.mostRecentUltrasonicVoltageTwo
                0x200019e0        0x4 build/Ultrasonics.o
                0x200019e0                mostRecentUltrasonicVoltageTwo
 .bss.lastADCOneReadMicros
                0x200019e4        0x4 build/Ultrasonics.o
                0x200019e4                lastADCOneReadMicros
 .bss.lastADCTwoReadMicros
                0x200019e8        0x4 build/Ultrasonics.o
                0x200019e8                lastADCTwoReadMicros
 .bss.mostRecentUltrasonicVoltageOne
                0x200019ec        0x4 build/Ultrasonics.o
                0x200019ec                mostRecentUltrasonicVoltageOne
 .bss.mostRecentUltrasonicRangeTwo
                0x200019f0        0x4 build/Ultrasonics.o
                0x200019f0                mostRecentUltrasonicRangeTwo
 *(COMMON)
 COMMON         0x200019f4        0x4 build/../../libmaple/libmaple/systick.o
                0x200019f4                systick_uptime_millis
 COMMON         0x200019f8        0x6 build/../../libmaple/libmaple/usb/usb.o
                0x200019f8                SaveRState
                0x200019fa                SaveTState
                0x200019fc                ResumeS
 *fill*         0x200019fe        0x2 00
 COMMON         0x20001a00        0x2 build/../../libmaple/libmaple/usb/usb_lib/usb_core.o
                0x20001a00                StatusInfo
 *fill*         0x20001a02        0x2 00
 COMMON         0x20001a04       0x32 build/../../libmaple/libmaple/usb/usb_lib/usb_init.o
                0x20001a04                SaveState
                0x20001a08                pProperty
                0x20001a0c                EPindex
                0x20001a10                Device_Info
                0x20001a2c                pUser_Standard_Requests
                0x20001a30                pInformation
                0x20001a34                wInterrupt_Mask
                0x20001a38                . = ALIGN (0x8)
 *fill*         0x20001a36        0x2 00
                0x20001a38                _end = .
                0x08005000                __cs3_region_init_ram = DEFINED (_FLASH_BUILD)?LOADADDR (.data):LOADADDR (.text)
                0x17ffc398                __cs3_region_init_size_ram = DEFINED (_FLASH_BUILD)?(_edata - ADDR (.data)):(_edata - ADDR (.text))
                0x000006a0                __cs3_region_zero_size_ram = (_end - _edata)
                0x00000001                __cs3_region_num = 0x1

.stab
 *(.stab)

.stabstr
 *(.stabstr)

.debug
 *(.debug)

.line
 *(.line)

.debug_srcinfo
 *(.debug_srcinfo)

.debug_sfnames
 *(.debug_sfnames)

.comment        0x00000000      0x70e
 .comment       0x00000000       0x12 /Users/alexanderryan/Programming/SmartMouse/MapleCode/arm/bin/../lib/gcc/arm-none-eabi/4.4.1/thumb2/crtbegin.o
 .comment       0x00000012       0x12 build/../../libmaple/libmaple/adc.o
 .comment       0x00000024       0x12 build/../../libmaple/libmaple/bkp.o
 .comment       0x00000036       0x12 build/../../libmaple/libmaple/dac.o
 .comment       0x00000048       0x12 build/../../libmaple/libmaple/dma.o
 .comment       0x0000005a       0x12 build/../../libmaple/libmaple/exti.o
 .comment       0x0000006c       0x12 build/../../libmaple/libmaple/flash.o
 .comment       0x0000007e       0x12 build/../../libmaple/libmaple/fsmc.o
 .comment       0x00000090       0x12 build/../../libmaple/libmaple/gpio.o
 .comment       0x000000a2       0x12 build/../../libmaple/libmaple/iwdg.o
 .comment       0x000000b4       0x12 build/../../libmaple/libmaple/nvic.o
 .comment       0x000000c6       0x12 build/../../libmaple/libmaple/pwr.o
 .comment       0x000000d8       0x12 build/../../libmaple/libmaple/i2c.o
 .comment       0x000000ea       0x12 build/../../libmaple/libmaple/rcc.o
 .comment       0x000000fc       0x12 build/../../libmaple/libmaple/spi.o
 .comment       0x0000010e       0x12 build/../../libmaple/libmaple/syscalls.o
 .comment       0x00000120       0x12 build/../../libmaple/libmaple/systick.o
 .comment       0x00000132       0x12 build/../../libmaple/libmaple/timer.o
 .comment       0x00000144       0x12 build/../../libmaple/libmaple/usart.o
 .comment       0x00000156       0x12 build/../../libmaple/libmaple/util.o
 .comment       0x00000168       0x12 build/../../libmaple/libmaple/usb/usb.o
 .comment       0x0000017a       0x12 build/../../libmaple/libmaple/usb/usb_reg_map.o
 .comment       0x0000018c       0x12 build/../../libmaple/libmaple/usb/usb_cdcacm.o
 .comment       0x0000019e       0x12 build/../../libmaple/libmaple/usb/usb_lib/usb_core.o
 .comment       0x000001b0       0x12 build/../../libmaple/libmaple/usb/usb_lib/usb_init.o
 .comment       0x000001c2       0x12 build/../../libmaple/libmaple/usb/usb_lib/usb_mem.o
 .comment       0x000001d4       0x12 build/../../libmaple/libmaple/usb/usb_lib/usb_regs.o
 .comment       0x000001e6       0x12 build/../../libmaple/wirish/wirish_math.o
 .comment       0x000001f8       0x12 build/../../libmaple/wirish/Print.o
 .comment       0x0000020a       0x12 build/../../libmaple/wirish/boards.o
 .comment       0x0000021c       0x12 build/../../libmaple/wirish/boards/maple.o
 .comment       0x0000022e       0x12 build/../../libmaple/wirish/boards/maple_mini.o
 .comment       0x00000240       0x12 build/../../libmaple/wirish/boards/maple_native.o
 .comment       0x00000252       0x12 build/../../libmaple/wirish/boards/maple_RET6.o
 .comment       0x00000264       0x12 build/../../libmaple/wirish/boards/olimex_stm32_h103.o
 .comment       0x00000276       0x12 build/../../libmaple/wirish/comm/HardwareSerial.o
 .comment       0x00000288       0x12 build/../../libmaple/wirish/comm/HardwareSPI.o
 .comment       0x0000029a       0x12 build/../../libmaple/wirish/HardwareTimer.o
 .comment       0x000002ac       0x12 build/../../libmaple/wirish/usb_serial.o
 .comment       0x000002be       0x12 build/../../libmaple/wirish/cxxabi-compat.o
 .comment       0x000002d0       0x12 build/../../libmaple/wirish/wirish_shift.o
 .comment       0x000002e2       0x12 build/../../libmaple/wirish/wirish_analog.o
 .comment       0x000002f4       0x12 build/../../libmaple/wirish/wirish_time.o
 .comment       0x00000306       0x12 build/../../libmaple/wirish/pwm.o
 .comment       0x00000318       0x12 build/../../libmaple/wirish/ext_interrupts.o
 .comment       0x0000032a       0x12 build/../../libmaple/wirish/wirish_digital.o
 .comment       0x0000033c       0x12 build/../../libmaple/libraries/Servo/Servo.o
 .comment       0x0000034e       0x12 build/../../libmaple/libraries/LiquidCrystal/LiquidCrystal.o
 .comment       0x00000360       0x12 build/../../libmaple/libraries/Wire/Wire.o
 .comment       0x00000372       0x12 build/../../libmaple/libraries/FreeRTOS/utility/croutine.o
 .comment       0x00000384       0x12 build/../../libmaple/libraries/FreeRTOS/utility/heap_2.o
 .comment       0x00000396       0x12 build/../../libmaple/libraries/FreeRTOS/utility/list.o
 .comment       0x000003a8       0x12 build/../../libmaple/libraries/FreeRTOS/utility/port.o
 .comment       0x000003ba       0x12 build/../../libmaple/libraries/FreeRTOS/utility/queue.o
 .comment       0x000003cc       0x12 build/../../libmaple/libraries/FreeRTOS/utility/timers.o
 .comment       0x000003de       0x12 build/../../libmaple/libraries/FreeRTOS/utility/tasks.o
 .comment       0x000003f0       0x12 build/../../libmaple/libraries/FreeRTOS/MapleFreeRTOS.o
 .comment       0x00000402       0x12 build/IO.o
 .comment       0x00000414       0x12 build/Infrareds.o
 .comment       0x00000426       0x12 build/Sensors.o
 .comment       0x00000438       0x12 build/Ultrasonics.o
 .comment       0x0000044a       0x12 build/main.o
 .comment       0x0000045c       0x12 build/DriveControl.o
 .comment       0x0000046e       0x12 build/MiceSensors.o
 .comment       0x00000480       0x12 /Users/alexanderryan/Programming/SmartMouse/MapleCode/arm/bin/../lib/gcc/arm-none-eabi/4.4.1/thumb2/libgcc.a(_fixdfdi.o)
 .comment       0x00000492       0x12 /Users/alexanderryan/Programming/SmartMouse/MapleCode/arm/bin/../lib/gcc/arm-none-eabi/4.4.1/thumb2/libgcc.a(_fixunsdfdi.o)
 .comment       0x000004a4       0x12 /Users/alexanderryan/Programming/SmartMouse/MapleCode/arm/bin/../lib/gcc/arm-none-eabi/4.4.1/thumb2/libgcc.a(bpabi.o)
 .comment       0x000004b6       0x12 /Users/alexanderryan/Programming/SmartMouse/MapleCode/arm/bin/../lib/gcc/arm-none-eabi/4.4.1/thumb2/libgcc.a(_divdi3.o)
 .comment       0x000004c8       0x12 /Users/alexanderryan/Programming/SmartMouse/MapleCode/arm/bin/../lib/gcc/arm-none-eabi/4.4.1/thumb2/libgcc.a(_udivdi3.o)
 .comment       0x000004da       0x12 /Users/alexanderryan/Programming/SmartMouse/MapleCode/arm/bin/../lib/gcc/arm-none-eabi/4.4.1/../../../../arm-none-eabi/lib/thumb2/libc.a(lib_a-errno.o)
 .comment       0x000004ec       0x12 /Users/alexanderryan/Programming/SmartMouse/MapleCode/arm/bin/../lib/gcc/arm-none-eabi/4.4.1/../../../../arm-none-eabi/lib/thumb2/libc.a(lib_a-impure.o)
 .comment       0x000004fe       0x12 /Users/alexanderryan/Programming/SmartMouse/MapleCode/arm/bin/../lib/gcc/arm-none-eabi/4.4.1/../../../../arm-none-eabi/lib/thumb2/libc.a(lib_a-memcmp.o)
 .comment       0x00000510       0x12 /Users/alexanderryan/Programming/SmartMouse/MapleCode/arm/bin/../lib/gcc/arm-none-eabi/4.4.1/../../../../arm-none-eabi/lib/thumb2/libc.a(lib_a-memcpy.o)
 .comment       0x00000522       0x12 /Users/alexanderryan/Programming/SmartMouse/MapleCode/arm/bin/../lib/gcc/arm-none-eabi/4.4.1/../../../../arm-none-eabi/lib/thumb2/libc.a(lib_a-memset.o)
 .comment       0x00000534       0x12 /Users/alexanderryan/Programming/SmartMouse/MapleCode/arm/bin/../lib/gcc/arm-none-eabi/4.4.1/../../../../arm-none-eabi/lib/thumb2/libc.a(lib_a-rand.o)
 .comment       0x00000546       0x12 /Users/alexanderryan/Programming/SmartMouse/MapleCode/arm/bin/../lib/gcc/arm-none-eabi/4.4.1/../../../../arm-none-eabi/lib/thumb2/libc.a(lib_a-sprintf.o)
 .comment       0x00000558       0x12 /Users/alexanderryan/Programming/SmartMouse/MapleCode/arm/bin/../lib/gcc/arm-none-eabi/4.4.1/../../../../arm-none-eabi/lib/thumb2/libc.a(lib_a-strcat.o)
 .comment       0x0000056a       0x12 /Users/alexanderryan/Programming/SmartMouse/MapleCode/arm/bin/../lib/gcc/arm-none-eabi/4.4.1/../../../../arm-none-eabi/lib/thumb2/libc.a(lib_a-strlen.o)
 .comment       0x0000057c       0x12 /Users/alexanderryan/Programming/SmartMouse/MapleCode/arm/bin/../lib/gcc/arm-none-eabi/4.4.1/../../../../arm-none-eabi/lib/thumb2/libc.a(lib_a-strncpy.o)
 .comment       0x0000058e       0x12 /Users/alexanderryan/Programming/SmartMouse/MapleCode/arm/bin/../lib/gcc/arm-none-eabi/4.4.1/../../../../arm-none-eabi/lib/thumb2/libc.a(lib_a-svfprintf.o)
 .comment       0x000005a0       0x12 /Users/alexanderryan/Programming/SmartMouse/MapleCode/arm/bin/../lib/gcc/arm-none-eabi/4.4.1/../../../../arm-none-eabi/lib/thumb2/libc.a(lib_a-dtoa.o)
 .comment       0x000005b2       0x12 /Users/alexanderryan/Programming/SmartMouse/MapleCode/arm/bin/../lib/gcc/arm-none-eabi/4.4.1/../../../../arm-none-eabi/lib/thumb2/libc.a(lib_a-freer.o)
 .comment       0x000005c4       0x12 /Users/alexanderryan/Programming/SmartMouse/MapleCode/arm/bin/../lib/gcc/arm-none-eabi/4.4.1/../../../../arm-none-eabi/lib/thumb2/libc.a(lib_a-locale.o)
 .comment       0x000005d6       0x12 /Users/alexanderryan/Programming/SmartMouse/MapleCode/arm/bin/../lib/gcc/arm-none-eabi/4.4.1/../../../../arm-none-eabi/lib/thumb2/libc.a(lib_a-malloc.o)
 .comment       0x000005e8       0x12 /Users/alexanderryan/Programming/SmartMouse/MapleCode/arm/bin/../lib/gcc/arm-none-eabi/4.4.1/../../../../arm-none-eabi/lib/thumb2/libc.a(lib_a-mallocr.o)
 .comment       0x000005fa       0x12 /Users/alexanderryan/Programming/SmartMouse/MapleCode/arm/bin/../lib/gcc/arm-none-eabi/4.4.1/../../../../arm-none-eabi/lib/thumb2/libc.a(lib_a-memchr.o)
 .comment       0x0000060c       0x12 /Users/alexanderryan/Programming/SmartMouse/MapleCode/arm/bin/../lib/gcc/arm-none-eabi/4.4.1/../../../../arm-none-eabi/lib/thumb2/libc.a(lib_a-memmove.o)
 .comment       0x0000061e       0x12 /Users/alexanderryan/Programming/SmartMouse/MapleCode/arm/bin/../lib/gcc/arm-none-eabi/4.4.1/../../../../arm-none-eabi/lib/thumb2/libc.a(lib_a-mlock.o)
 .comment       0x00000630       0x12 /Users/alexanderryan/Programming/SmartMouse/MapleCode/arm/bin/../lib/gcc/arm-none-eabi/4.4.1/../../../../arm-none-eabi/lib/thumb2/libc.a(lib_a-mprec.o)
 .comment       0x00000642       0x12 /Users/alexanderryan/Programming/SmartMouse/MapleCode/arm/bin/../lib/gcc/arm-none-eabi/4.4.1/../../../../arm-none-eabi/lib/thumb2/libc.a(lib_a-reallocr.o)
 .comment       0x00000654       0x12 /Users/alexanderryan/Programming/SmartMouse/MapleCode/arm/bin/../lib/gcc/arm-none-eabi/4.4.1/../../../../arm-none-eabi/lib/thumb2/libc.a(lib_a-s_isinfd.o)
 .comment       0x00000666       0x12 /Users/alexanderryan/Programming/SmartMouse/MapleCode/arm/bin/../lib/gcc/arm-none-eabi/4.4.1/../../../../arm-none-eabi/lib/thumb2/libc.a(lib_a-s_isnand.o)
 .comment       0x00000678       0x12 /Users/alexanderryan/Programming/SmartMouse/MapleCode/arm/bin/../lib/gcc/arm-none-eabi/4.4.1/../../../../arm-none-eabi/lib/thumb2/libc.a(lib_a-sbrkr.o)
 .comment       0x0000068a       0x12 /Users/alexanderryan/Programming/SmartMouse/MapleCode/arm/bin/../lib/gcc/arm-none-eabi/4.4.1/../../../../arm-none-eabi/lib/thumb2/libc.a(lib_a-strcmp.o)
 .comment       0x0000069c       0x12 /Users/alexanderryan/Programming/SmartMouse/MapleCode/arm/bin/../lib/gcc/arm-none-eabi/4.4.1/../../../../arm-none-eabi/lib/thumb2/libc.a(lib_a-callocr.o)
 .comment       0x000006ae       0x12 /Users/alexanderryan/Programming/SmartMouse/MapleCode/arm/bin/../lib/gcc/arm-none-eabi/4.4.1/../../../../arm-none-eabi/lib/thumb2/libc.a(lib_a-reent.o)
 .comment       0x000006c0       0x12 /Users/alexanderryan/Programming/SmartMouse/MapleCode/arm/bin/../lib/gcc/arm-none-eabi/4.4.1/thumb2/crtend.o
 .comment       0x000006d2       0x2a ../../libmaple/support/ld/libcs3_stm32_high_density.a(start_c.o)
                                 0x2b (size before relaxing)
 .comment       0x000006fc       0x12 /Users/alexanderryan/Programming/SmartMouse/MapleCode/arm/bin/../lib/gcc/arm-none-eabi/4.4.1/../../../../arm-none-eabi/lib/thumb2/libc.a(lib_a-init.o)

.debug_aranges  0x00000000     0x1ac8
 *(.debug_aranges)
 .debug_aranges
                0x00000000       0x28 /Users/alexanderryan/Programming/SmartMouse/MapleCode/arm/bin/../lib/gcc/arm-none-eabi/4.4.1/thumb2/crti.o
 .debug_aranges
                0x00000028       0x50 build/../../libmaple/libmaple/adc.o
 .debug_aranges
                0x00000078       0x50 build/../../libmaple/libmaple/bkp.o
 .debug_aranges
                0x000000c8       0x38 build/../../libmaple/libmaple/dac.o
 .debug_aranges
                0x00000100       0xf0 build/../../libmaple/libmaple/dma.o
 .debug_aranges
                0x000001f0       0x80 build/../../libmaple/libmaple/exti.o
 .debug_aranges
                0x00000270       0x28 build/../../libmaple/libmaple/flash.o
 .debug_aranges
                0x00000298       0x20 build/../../libmaple/libmaple/fsmc.o
 .debug_aranges
                0x000002b8       0x48 build/../../libmaple/libmaple/gpio.o
 .debug_aranges
                0x00000300       0x28 build/../../libmaple/libmaple/iwdg.o
 .debug_aranges
                0x00000328       0x38 build/../../libmaple/libmaple/nvic.o
 .debug_aranges
                0x00000360       0x20 build/../../libmaple/libmaple/pwr.o
 .debug_aranges
                0x00000380       0xb8 build/../../libmaple/libmaple/i2c.o
 .debug_aranges
                0x00000438       0x48 build/../../libmaple/libmaple/rcc.o
 .debug_aranges
                0x00000480       0x88 build/../../libmaple/libmaple/spi.o
 .debug_aranges
                0x00000508       0x80 build/../../libmaple/libmaple/syscalls.o
 .debug_aranges
                0x00000588       0x40 build/../../libmaple/libmaple/systick.o
 .debug_aranges
                0x000005c8      0x118 build/../../libmaple/libmaple/timer.o
 .debug_aranges
                0x000006e0       0x90 build/../../libmaple/libmaple/usart.o
 .debug_aranges
                0x00000770       0x70 build/../../libmaple/libmaple/util.o
 .debug_aranges
                0x000007e0       0x78 build/../../libmaple/libmaple/usb/usb.o
 .debug_aranges
                0x00000858       0x38 build/../../libmaple/libmaple/usb/usb_reg_map.o
 .debug_aranges
                0x00000890      0x100 build/../../libmaple/libmaple/usb/usb_cdcacm.o
 .debug_aranges
                0x00000990       0x98 build/../../libmaple/libmaple/usb/usb_lib/usb_core.o
 .debug_aranges
                0x00000a28       0x20 build/../../libmaple/libmaple/usb/usb_lib/usb_init.o
 .debug_aranges
                0x00000a48       0x28 build/../../libmaple/libmaple/usb/usb_lib/usb_mem.o
 .debug_aranges
                0x00000a70      0x1f0 build/../../libmaple/libmaple/usb/usb_lib/usb_regs.o
 .debug_aranges
                0x00000c60       0x30 build/../../libmaple/wirish/wirish_math.o
 .debug_aranges
                0x00000c90       0xe0 build/../../libmaple/wirish/Print.o
 .debug_aranges
                0x00000d70       0x40 build/../../libmaple/wirish/boards.o
 .debug_aranges
                0x00000db0       0x28 build/../../libmaple/wirish/boards/maple_RET6.o
 .debug_aranges
                0x00000dd8       0x68 build/../../libmaple/wirish/comm/HardwareSerial.o
 .debug_aranges
                0x00000e40       0xd0 build/../../libmaple/wirish/comm/HardwareSPI.o
 .debug_aranges
                0x00000f10       0xb0 build/../../libmaple/wirish/HardwareTimer.o
 .debug_aranges
                0x00000fc0       0x98 build/../../libmaple/wirish/usb_serial.o
 .debug_aranges
                0x00001058       0x20 build/../../libmaple/wirish/cxxabi-compat.o
 .debug_aranges
                0x00001078       0x20 build/../../libmaple/wirish/wirish_shift.o
 .debug_aranges
                0x00001098       0x20 build/../../libmaple/wirish/wirish_analog.o
 .debug_aranges
                0x000010b8       0x28 build/../../libmaple/wirish/wirish_time.o
 .debug_aranges
                0x000010e0       0x20 build/../../libmaple/wirish/pwm.o
 .debug_aranges
                0x00001100       0x28 build/../../libmaple/wirish/ext_interrupts.o
 .debug_aranges
                0x00001128       0x48 build/../../libmaple/wirish/wirish_digital.o
 .debug_aranges
                0x00001170       0x78 build/../../libmaple/libraries/Servo/Servo.o
 .debug_aranges
                0x000011e8      0x120 build/../../libmaple/libraries/LiquidCrystal/LiquidCrystal.o
 .debug_aranges
                0x00001308       0xe8 build/../../libmaple/libraries/Wire/Wire.o
 .debug_aranges
                0x000013f0       0x38 build/../../libmaple/libraries/FreeRTOS/utility/croutine.o
 .debug_aranges
                0x00001428       0x38 build/../../libmaple/libraries/FreeRTOS/utility/heap_2.o
 .debug_aranges
                0x00001460       0x40 build/../../libmaple/libraries/FreeRTOS/utility/list.o
 .debug_aranges
                0x000014a0       0x68 build/../../libmaple/libraries/FreeRTOS/utility/port.o
 .debug_aranges
                0x00001508       0xa0 build/../../libmaple/libraries/FreeRTOS/utility/queue.o
 .debug_aranges
                0x000015a8      0x120 build/../../libmaple/libraries/FreeRTOS/utility/tasks.o
 .debug_aranges
                0x000016c8       0x20 build/../../libmaple/libraries/FreeRTOS/MapleFreeRTOS.o
 .debug_aranges
                0x000016e8       0x20 build/IO.o
 .debug_aranges
                0x00001708       0xb0 build/Infrareds.o
 .debug_aranges
                0x000017b8       0x20 build/Sensors.o
 .debug_aranges
                0x000017d8       0x60 build/Ultrasonics.o
 .debug_aranges
                0x00001838       0x50 build/main.o
 .debug_aranges
                0x00001888       0x38 build/DriveControl.o
 .debug_aranges
                0x000018c0       0x20 build/MiceSensors.o
 .debug_aranges
                0x000018e0       0x20 /Users/alexanderryan/Programming/SmartMouse/MapleCode/arm/bin/../lib/gcc/arm-none-eabi/4.4.1/thumb2/libgcc.a(_arm_addsubdf3.o)
 .debug_aranges
                0x00001900       0x20 /Users/alexanderryan/Programming/SmartMouse/MapleCode/arm/bin/../lib/gcc/arm-none-eabi/4.4.1/thumb2/libgcc.a(_arm_muldivdf3.o)
 .debug_aranges
                0x00001920       0x20 /Users/alexanderryan/Programming/SmartMouse/MapleCode/arm/bin/../lib/gcc/arm-none-eabi/4.4.1/thumb2/libgcc.a(_arm_cmpdf2.o)
 .debug_aranges
                0x00001940       0x20 /Users/alexanderryan/Programming/SmartMouse/MapleCode/arm/bin/../lib/gcc/arm-none-eabi/4.4.1/thumb2/libgcc.a(_arm_fixdfsi.o)
 .debug_aranges
                0x00001960       0x20 /Users/alexanderryan/Programming/SmartMouse/MapleCode/arm/bin/../lib/gcc/arm-none-eabi/4.4.1/thumb2/libgcc.a(_aeabi_uldivmod.o)
 .debug_aranges
                0x00001980       0x20 /Users/alexanderryan/Programming/SmartMouse/MapleCode/arm/bin/../lib/gcc/arm-none-eabi/4.4.1/thumb2/libgcc.a(_fixdfdi.o)
 .debug_aranges
                0x000019a0       0x20 /Users/alexanderryan/Programming/SmartMouse/MapleCode/arm/bin/../lib/gcc/arm-none-eabi/4.4.1/thumb2/libgcc.a(_fixunsdfdi.o)
 .debug_aranges
                0x000019c0       0x20 /Users/alexanderryan/Programming/SmartMouse/MapleCode/arm/bin/../lib/gcc/arm-none-eabi/4.4.1/thumb2/libgcc.a(bpabi.o)
 .debug_aranges
                0x000019e0       0x20 /Users/alexanderryan/Programming/SmartMouse/MapleCode/arm/bin/../lib/gcc/arm-none-eabi/4.4.1/thumb2/libgcc.a(_dvmd_tls.o)
 .debug_aranges
                0x00001a00       0x20 /Users/alexanderryan/Programming/SmartMouse/MapleCode/arm/bin/../lib/gcc/arm-none-eabi/4.4.1/thumb2/libgcc.a(_arm_fixunsdfsi.o)
 .debug_aranges
                0x00001a20       0x20 /Users/alexanderryan/Programming/SmartMouse/MapleCode/arm/bin/../lib/gcc/arm-none-eabi/4.4.1/thumb2/libgcc.a(_divdi3.o)
 .debug_aranges
                0x00001a40       0x20 /Users/alexanderryan/Programming/SmartMouse/MapleCode/arm/bin/../lib/gcc/arm-none-eabi/4.4.1/thumb2/libgcc.a(_udivdi3.o)
 .debug_aranges
                0x00001a60       0x20 /Users/alexanderryan/Programming/SmartMouse/MapleCode/arm/bin/../lib/gcc/arm-none-eabi/4.4.1/thumb2/libgcc.a(_udivsi3.o)
 .debug_aranges
                0x00001a80       0x20 /Users/alexanderryan/Programming/SmartMouse/MapleCode/arm/bin/../lib/gcc/arm-none-eabi/4.4.1/thumb2/libgcc.a(_divsi3.o)
 .debug_aranges
                0x00001aa0       0x28 /Users/alexanderryan/Programming/SmartMouse/MapleCode/arm/bin/../lib/gcc/arm-none-eabi/4.4.1/thumb2/crtn.o

.debug_pubnames
                0x00000000     0x3790
 *(.debug_pubnames)
 .debug_pubnames
                0x00000000       0x9d build/../../libmaple/libmaple/adc.o
 .debug_pubnames
                0x0000009d       0x77 build/../../libmaple/libmaple/bkp.o
 .debug_pubnames
                0x00000114       0x74 build/../../libmaple/libmaple/dac.o
 .debug_pubnames
                0x00000188      0x212 build/../../libmaple/libmaple/dma.o
 .debug_pubnames
                0x0000039a       0xbc build/../../libmaple/libmaple/exti.o
 .debug_pubnames
                0x00000456       0x42 build/../../libmaple/libmaple/flash.o
 .debug_pubnames
                0x00000498       0x2b build/../../libmaple/libmaple/fsmc.o
 .debug_pubnames
                0x000004c3      0x102 build/../../libmaple/libmaple/gpio.o
 .debug_pubnames
                0x000005c5       0x2e build/../../libmaple/libmaple/iwdg.o
 .debug_pubnames
                0x000005f3       0x67 build/../../libmaple/libmaple/nvic.o
 .debug_pubnames
                0x0000065a       0x1f build/../../libmaple/libmaple/pwr.o
 .debug_pubnames
                0x00000679       0xb5 build/../../libmaple/libmaple/i2c.o
 .debug_pubnames
                0x0000072e       0x6e build/../../libmaple/libmaple/rcc.o
 .debug_pubnames
                0x0000079c      0x120 build/../../libmaple/libmaple/spi.o
 .debug_pubnames
                0x000008bc       0x9b build/../../libmaple/libmaple/syscalls.o
 .debug_pubnames
                0x00000957       0x92 build/../../libmaple/libmaple/systick.o
 .debug_pubnames
                0x000009e9      0x1dc build/../../libmaple/libmaple/timer.o
 .debug_pubnames
                0x00000bc5      0x122 build/../../libmaple/libmaple/usart.o
 .debug_pubnames
                0x00000ce7       0x66 build/../../libmaple/libmaple/util.o
 .debug_pubnames
                0x00000d4d       0xdb build/../../libmaple/libmaple/usb/usb.o
 .debug_pubnames
                0x00000e28       0x54 build/../../libmaple/libmaple/usb/usb_reg_map.o
 .debug_pubnames
                0x00000e7c      0x293 build/../../libmaple/libmaple/usb/usb_cdcacm.o
 .debug_pubnames
                0x0000110f      0x1a5 build/../../libmaple/libmaple/usb/usb_lib/usb_core.o
 .debug_pubnames
                0x000012b4       0x98 build/../../libmaple/libmaple/usb/usb_lib/usb_init.o
 .debug_pubnames
                0x0000134c       0x42 build/../../libmaple/libmaple/usb/usb_lib/usb_mem.o
 .debug_pubnames
                0x0000138e      0x419 build/../../libmaple/libmaple/usb/usb_lib/usb_regs.o
 .debug_pubnames
                0x000017a7       0x37 build/../../libmaple/wirish/wirish_math.o
 .debug_pubnames
                0x000017de      0x1dc build/../../libmaple/wirish/Print.o
 .debug_pubnames
                0x000019ba       0x2c build/../../libmaple/wirish/boards.o
 .debug_pubnames
                0x000019e6       0x60 build/../../libmaple/wirish/boards/maple_RET6.o
 .debug_pubnames
                0x00001a46      0x12a build/../../libmaple/wirish/comm/HardwareSerial.o
 .debug_pubnames
                0x00001b70      0x1df build/../../libmaple/wirish/comm/HardwareSPI.o
 .debug_pubnames
                0x00001d4f      0x274 build/../../libmaple/wirish/HardwareTimer.o
 .debug_pubnames
                0x00001fc3      0x169 build/../../libmaple/wirish/usb_serial.o
 .debug_pubnames
                0x0000212c       0x29 build/../../libmaple/wirish/cxxabi-compat.o
 .debug_pubnames
                0x00002155       0x1f build/../../libmaple/wirish/wirish_shift.o
 .debug_pubnames
                0x00002174       0x21 build/../../libmaple/wirish/wirish_analog.o
 .debug_pubnames
                0x00002195       0x32 build/../../libmaple/wirish/wirish_time.o
 .debug_pubnames
                0x000021c7       0x1f build/../../libmaple/wirish/pwm.o
 .debug_pubnames
                0x000021e6       0x3a build/../../libmaple/wirish/ext_interrupts.o
 .debug_pubnames
                0x00002220       0x78 build/../../libmaple/wirish/wirish_digital.o
 .debug_pubnames
                0x00002298       0xdd build/../../libmaple/libraries/Servo/Servo.o
 .debug_pubnames
                0x00002375      0x3d8 build/../../libmaple/libraries/LiquidCrystal/LiquidCrystal.o
 .debug_pubnames
                0x0000274d      0x230 build/../../libmaple/libraries/Wire/Wire.o
 .debug_pubnames
                0x0000297d       0x96 build/../../libmaple/libraries/FreeRTOS/utility/croutine.o
 .debug_pubnames
                0x00002a13       0x64 build/../../libmaple/libraries/FreeRTOS/utility/heap_2.o
 .debug_pubnames
                0x00002a77       0x71 build/../../libmaple/libraries/FreeRTOS/utility/list.o
 .debug_pubnames
                0x00002ae8      0x101 build/../../libmaple/libraries/FreeRTOS/utility/port.o
 .debug_pubnames
                0x00002be9      0x183 build/../../libmaple/libraries/FreeRTOS/utility/queue.o
 .debug_pubnames
                0x00002d6c      0x2c0 build/../../libmaple/libraries/FreeRTOS/utility/tasks.o
 .debug_pubnames
                0x0000302c       0x34 build/../../libmaple/libraries/FreeRTOS/MapleFreeRTOS.o
 .debug_pubnames
                0x00003060       0x22 build/IO.o
 .debug_pubnames
                0x00003082      0x2b2 build/Infrareds.o
 .debug_pubnames
                0x00003334       0x23 build/Sensors.o
 .debug_pubnames
                0x00003357      0x1ff build/Ultrasonics.o
 .debug_pubnames
                0x00003556       0xac build/main.o
 .debug_pubnames
                0x00003602       0xa0 build/DriveControl.o
 .debug_pubnames
                0x000036a2       0x27 build/MiceSensors.o
 .debug_pubnames
                0x000036c9       0x20 /Users/alexanderryan/Programming/SmartMouse/MapleCode/arm/bin/../lib/gcc/arm-none-eabi/4.4.1/thumb2/libgcc.a(_fixdfdi.o)
 .debug_pubnames
                0x000036e9       0x23 /Users/alexanderryan/Programming/SmartMouse/MapleCode/arm/bin/../lib/gcc/arm-none-eabi/4.4.1/thumb2/libgcc.a(_fixunsdfdi.o)
 .debug_pubnames
                0x0000370c       0x45 /Users/alexanderryan/Programming/SmartMouse/MapleCode/arm/bin/../lib/gcc/arm-none-eabi/4.4.1/thumb2/libgcc.a(bpabi.o)
 .debug_pubnames
                0x00003751       0x1f /Users/alexanderryan/Programming/SmartMouse/MapleCode/arm/bin/../lib/gcc/arm-none-eabi/4.4.1/thumb2/libgcc.a(_divdi3.o)
 .debug_pubnames
                0x00003770       0x20 /Users/alexanderryan/Programming/SmartMouse/MapleCode/arm/bin/../lib/gcc/arm-none-eabi/4.4.1/thumb2/libgcc.a(_udivdi3.o)

.debug_info     0x00000000    0x202d0
 *(.debug_info .gnu.linkonce.wi.*)
 .debug_info    0x00000000       0x8f /Users/alexanderryan/Programming/SmartMouse/MapleCode/arm/bin/../lib/gcc/arm-none-eabi/4.4.1/thumb2/crti.o
 .debug_info    0x0000008f      0x6c3 build/../../libmaple/libmaple/adc.o
 .debug_info    0x00000752      0x650 build/../../libmaple/libmaple/bkp.o
 .debug_info    0x00000da2      0x4fa build/../../libmaple/libmaple/dac.o
 .debug_info    0x0000129c      0xfce build/../../libmaple/libmaple/dma.o
 .debug_info    0x0000226a      0x839 build/../../libmaple/libmaple/exti.o
 .debug_info    0x00002aa3      0x1a8 build/../../libmaple/libmaple/flash.o
 .debug_info    0x00002c4b      0x318 build/../../libmaple/libmaple/fsmc.o
 .debug_info    0x00002f63      0x6f2 build/../../libmaple/libmaple/gpio.o
 .debug_info    0x00003655      0x14a build/../../libmaple/libmaple/iwdg.o
 .debug_info    0x0000379f      0x51a build/../../libmaple/libmaple/nvic.o
 .debug_info    0x00003cb9      0x179 build/../../libmaple/libmaple/pwr.o
 .debug_info    0x00003e32      0xf9b build/../../libmaple/libmaple/i2c.o
 .debug_info    0x00004dcd      0x6b7 build/../../libmaple/libmaple/rcc.o
 .debug_info    0x00005484      0xb86 build/../../libmaple/libmaple/spi.o
 .debug_info    0x0000600a      0x550 build/../../libmaple/libmaple/syscalls.o
 .debug_info    0x0000655a      0x16b build/../../libmaple/libmaple/systick.o
 .debug_info    0x000066c5     0x1421 build/../../libmaple/libmaple/timer.o
 .debug_info    0x00007ae6      0xcec build/../../libmaple/libmaple/usart.o
 .debug_info    0x000087d2      0xc6a build/../../libmaple/libmaple/util.o
 .debug_info    0x0000943c      0xb4b build/../../libmaple/libmaple/usb/usb.o
 .debug_info    0x00009f87      0x2ee build/../../libmaple/libmaple/usb/usb_reg_map.o
 .debug_info    0x0000a275     0x1a6f build/../../libmaple/libmaple/usb/usb_cdcacm.o
 .debug_info    0x0000bce4      0xc01 build/../../libmaple/libmaple/usb/usb_lib/usb_core.o
 .debug_info    0x0000c8e5      0x458 build/../../libmaple/libmaple/usb/usb_lib/usb_init.o
 .debug_info    0x0000cd3d      0x171 build/../../libmaple/libmaple/usb/usb_lib/usb_mem.o
 .debug_info    0x0000ceae      0xcc7 build/../../libmaple/libmaple/usb/usb_lib/usb_regs.o
 .debug_info    0x0000db75      0x139 build/../../libmaple/wirish/wirish_math.o
 .debug_info    0x0000dcae      0xb10 build/../../libmaple/wirish/Print.o
 .debug_info    0x0000e7be      0xfc8 build/../../libmaple/wirish/boards.o
 .debug_info    0x0000f786       0x29 build/../../libmaple/wirish/boards/maple.o
 .debug_info    0x0000f7af       0x29 build/../../libmaple/wirish/boards/maple_mini.o
 .debug_info    0x0000f7d8       0x29 build/../../libmaple/wirish/boards/maple_native.o
 .debug_info    0x0000f801      0xa1a build/../../libmaple/wirish/boards/maple_RET6.o
 .debug_info    0x0001021b       0x29 build/../../libmaple/wirish/boards/olimex_stm32_h103.o
 .debug_info    0x00010244     0x12a9 build/../../libmaple/wirish/comm/HardwareSerial.o
 .debug_info    0x000114ed     0x178b build/../../libmaple/wirish/comm/HardwareSPI.o
 .debug_info    0x00012c78     0x136d build/../../libmaple/wirish/HardwareTimer.o
 .debug_info    0x00013fe5      0x921 build/../../libmaple/wirish/usb_serial.o
 .debug_info    0x00014906       0x40 build/../../libmaple/wirish/cxxabi-compat.o
 .debug_info    0x00014946      0x129 build/../../libmaple/wirish/wirish_shift.o
 .debug_info    0x00014a6f      0x8f3 build/../../libmaple/wirish/wirish_analog.o
 .debug_info    0x00015362      0x126 build/../../libmaple/wirish/wirish_time.o
 .debug_info    0x00015488      0x974 build/../../libmaple/wirish/pwm.o
 .debug_info    0x00015dfc      0xa3d build/../../libmaple/wirish/ext_interrupts.o
 .debug_info    0x00016839      0xbfe build/../../libmaple/wirish/wirish_digital.o
 .debug_info    0x00017437      0xfc6 build/../../libmaple/libraries/Servo/Servo.o
 .debug_info    0x000183fd     0x109a build/../../libmaple/libraries/LiquidCrystal/LiquidCrystal.o
 .debug_info    0x00019497      0xc04 build/../../libmaple/libraries/Wire/Wire.o
 .debug_info    0x0001a09b      0x4e4 build/../../libmaple/libraries/FreeRTOS/utility/croutine.o
 .debug_info    0x0001a57f      0x2b6 build/../../libmaple/libraries/FreeRTOS/utility/heap_2.o
 .debug_info    0x0001a835      0x2a8 build/../../libmaple/libraries/FreeRTOS/utility/list.o
 .debug_info    0x0001aadd      0x1b6 build/../../libmaple/libraries/FreeRTOS/utility/port.o
 .debug_info    0x0001ac93      0x873 build/../../libmaple/libraries/FreeRTOS/utility/queue.o
 .debug_info    0x0001b506       0x57 build/../../libmaple/libraries/FreeRTOS/utility/timers.o
 .debug_info    0x0001b55d     0x101b build/../../libmaple/libraries/FreeRTOS/utility/tasks.o
 .debug_info    0x0001c578       0xfa build/../../libmaple/libraries/FreeRTOS/MapleFreeRTOS.o
 .debug_info    0x0001c672      0x10b build/IO.o
 .debug_info    0x0001c77d     0x1079 build/Infrareds.o
 .debug_info    0x0001d7f6       0x7e build/Sensors.o
 .debug_info    0x0001d874      0xf73 build/Ultrasonics.o
 .debug_info    0x0001e7e7      0x179 build/main.o
 .debug_info    0x0001e960      0x222 build/DriveControl.o
 .debug_info    0x0001eb82       0xc6 build/MiceSensors.o
 .debug_info    0x0001ec48       0xbf /Users/alexanderryan/Programming/SmartMouse/MapleCode/arm/bin/../lib/gcc/arm-none-eabi/4.4.1/thumb2/libgcc.a(_arm_addsubdf3.o)
 .debug_info    0x0001ed07       0xbf /Users/alexanderryan/Programming/SmartMouse/MapleCode/arm/bin/../lib/gcc/arm-none-eabi/4.4.1/thumb2/libgcc.a(_arm_muldivdf3.o)
 .debug_info    0x0001edc6       0xbf /Users/alexanderryan/Programming/SmartMouse/MapleCode/arm/bin/../lib/gcc/arm-none-eabi/4.4.1/thumb2/libgcc.a(_arm_cmpdf2.o)
 .debug_info    0x0001ee85       0xbf /Users/alexanderryan/Programming/SmartMouse/MapleCode/arm/bin/../lib/gcc/arm-none-eabi/4.4.1/thumb2/libgcc.a(_arm_fixdfsi.o)
 .debug_info    0x0001ef44       0xba /Users/alexanderryan/Programming/SmartMouse/MapleCode/arm/bin/../lib/gcc/arm-none-eabi/4.4.1/thumb2/libgcc.a(_aeabi_uldivmod.o)
 .debug_info    0x0001effe       0xca /Users/alexanderryan/Programming/SmartMouse/MapleCode/arm/bin/../lib/gcc/arm-none-eabi/4.4.1/thumb2/libgcc.a(_fixdfdi.o)
 .debug_info    0x0001f0c8       0xf4 /Users/alexanderryan/Programming/SmartMouse/MapleCode/arm/bin/../lib/gcc/arm-none-eabi/4.4.1/thumb2/libgcc.a(_fixunsdfdi.o)
 .debug_info    0x0001f1bc       0xe2 /Users/alexanderryan/Programming/SmartMouse/MapleCode/arm/bin/../lib/gcc/arm-none-eabi/4.4.1/thumb2/libgcc.a(bpabi.o)
 .debug_info    0x0001f29e       0xc0 /Users/alexanderryan/Programming/SmartMouse/MapleCode/arm/bin/../lib/gcc/arm-none-eabi/4.4.1/thumb2/libgcc.a(_dvmd_tls.o)
 .debug_info    0x0001f35e       0xbf /Users/alexanderryan/Programming/SmartMouse/MapleCode/arm/bin/../lib/gcc/arm-none-eabi/4.4.1/thumb2/libgcc.a(_arm_fixunsdfsi.o)
 .debug_info    0x0001f41d      0x665 /Users/alexanderryan/Programming/SmartMouse/MapleCode/arm/bin/../lib/gcc/arm-none-eabi/4.4.1/thumb2/libgcc.a(_divdi3.o)
 .debug_info    0x0001fa82      0x63f /Users/alexanderryan/Programming/SmartMouse/MapleCode/arm/bin/../lib/gcc/arm-none-eabi/4.4.1/thumb2/libgcc.a(_udivdi3.o)
 .debug_info    0x000200c1       0xc0 /Users/alexanderryan/Programming/SmartMouse/MapleCode/arm/bin/../lib/gcc/arm-none-eabi/4.4.1/thumb2/libgcc.a(_udivsi3.o)
 .debug_info    0x00020181       0xc0 /Users/alexanderryan/Programming/SmartMouse/MapleCode/arm/bin/../lib/gcc/arm-none-eabi/4.4.1/thumb2/libgcc.a(_divsi3.o)
 .debug_info    0x00020241       0x8f /Users/alexanderryan/Programming/SmartMouse/MapleCode/arm/bin/../lib/gcc/arm-none-eabi/4.4.1/thumb2/crtn.o

.debug_abbrev   0x00000000     0x72d4
 *(.debug_abbrev)
 .debug_abbrev  0x00000000       0x12 /Users/alexanderryan/Programming/SmartMouse/MapleCode/arm/bin/../lib/gcc/arm-none-eabi/4.4.1/thumb2/crti.o
 .debug_abbrev  0x00000012      0x22b build/../../libmaple/libmaple/adc.o
 .debug_abbrev  0x0000023d      0x16a build/../../libmaple/libmaple/bkp.o
 .debug_abbrev  0x000003a7      0x13f build/../../libmaple/libmaple/dac.o
 .debug_abbrev  0x000004e6      0x36c build/../../libmaple/libmaple/dma.o
 .debug_abbrev  0x00000852      0x216 build/../../libmaple/libmaple/exti.o
 .debug_abbrev  0x00000a68       0xf4 build/../../libmaple/libmaple/flash.o
 .debug_abbrev  0x00000b5c       0xe2 build/../../libmaple/libmaple/fsmc.o
 .debug_abbrev  0x00000c3e      0x16c build/../../libmaple/libmaple/gpio.o
 .debug_abbrev  0x00000daa       0xb1 build/../../libmaple/libmaple/iwdg.o
 .debug_abbrev  0x00000e5b      0x135 build/../../libmaple/libmaple/nvic.o
 .debug_abbrev  0x00000f90       0x5b build/../../libmaple/libmaple/pwr.o
 .debug_abbrev  0x00000feb      0x3dd build/../../libmaple/libmaple/i2c.o
 .debug_abbrev  0x000013c8      0x1f4 build/../../libmaple/libmaple/rcc.o
 .debug_abbrev  0x000015bc      0x269 build/../../libmaple/libmaple/spi.o
 .debug_abbrev  0x00001825      0x1b8 build/../../libmaple/libmaple/syscalls.o
 .debug_abbrev  0x000019dd       0xed build/../../libmaple/libmaple/systick.o
 .debug_abbrev  0x00001aca      0x379 build/../../libmaple/libmaple/timer.o
 .debug_abbrev  0x00001e43      0x313 build/../../libmaple/libmaple/usart.o
 .debug_abbrev  0x00002156      0x2ce build/../../libmaple/libmaple/util.o
 .debug_abbrev  0x00002424      0x367 build/../../libmaple/libmaple/usb/usb.o
 .debug_abbrev  0x0000278b      0x18e build/../../libmaple/libmaple/usb/usb_reg_map.o
 .debug_abbrev  0x00002919      0x43f build/../../libmaple/libmaple/usb/usb_cdcacm.o
 .debug_abbrev  0x00002d58      0x319 build/../../libmaple/libmaple/usb/usb_lib/usb_core.o
 .debug_abbrev  0x00003071      0x104 build/../../libmaple/libmaple/usb/usb_lib/usb_init.o
 .debug_abbrev  0x00003175       0xb5 build/../../libmaple/libmaple/usb/usb_lib/usb_mem.o
 .debug_abbrev  0x0000322a      0x1d6 build/../../libmaple/libmaple/usb/usb_lib/usb_regs.o
 .debug_abbrev  0x00003400       0x8a build/../../libmaple/wirish/wirish_math.o
 .debug_abbrev  0x0000348a      0x201 build/../../libmaple/wirish/Print.o
 .debug_abbrev  0x0000368b      0x2bd build/../../libmaple/wirish/boards.o
 .debug_abbrev  0x00003948       0x16 build/../../libmaple/wirish/boards/maple.o
 .debug_abbrev  0x0000395e       0x16 build/../../libmaple/wirish/boards/maple_mini.o
 .debug_abbrev  0x00003974       0x16 build/../../libmaple/wirish/boards/maple_native.o
 .debug_abbrev  0x0000398a      0x178 build/../../libmaple/wirish/boards/maple_RET6.o
 .debug_abbrev  0x00003b02       0x16 build/../../libmaple/wirish/boards/olimex_stm32_h103.o
 .debug_abbrev  0x00003b18      0x3c2 build/../../libmaple/wirish/comm/HardwareSerial.o
 .debug_abbrev  0x00003eda      0x3b7 build/../../libmaple/wirish/comm/HardwareSPI.o
 .debug_abbrev  0x00004291      0x376 build/../../libmaple/wirish/HardwareTimer.o
 .debug_abbrev  0x00004607      0x32f build/../../libmaple/wirish/usb_serial.o
 .debug_abbrev  0x00004936       0x2b build/../../libmaple/wirish/cxxabi-compat.o
 .debug_abbrev  0x00004961       0xaa build/../../libmaple/wirish/wirish_shift.o
 .debug_abbrev  0x00004a0b      0x144 build/../../libmaple/wirish/wirish_analog.o
 .debug_abbrev  0x00004b4f       0xe7 build/../../libmaple/wirish/wirish_time.o
 .debug_abbrev  0x00004c36      0x1ab build/../../libmaple/wirish/pwm.o
 .debug_abbrev  0x00004de1      0x1aa build/../../libmaple/wirish/ext_interrupts.o
 .debug_abbrev  0x00004f8b      0x26b build/../../libmaple/wirish/wirish_digital.o
 .debug_abbrev  0x000051f6      0x377 build/../../libmaple/libraries/Servo/Servo.o
 .debug_abbrev  0x0000556d      0x2b4 build/../../libmaple/libraries/LiquidCrystal/LiquidCrystal.o
 .debug_abbrev  0x00005821      0x2d0 build/../../libmaple/libraries/Wire/Wire.o
 .debug_abbrev  0x00005af1      0x1e2 build/../../libmaple/libraries/FreeRTOS/utility/croutine.o
 .debug_abbrev  0x00005cd3      0x199 build/../../libmaple/libraries/FreeRTOS/utility/heap_2.o
 .debug_abbrev  0x00005e6c       0xf2 build/../../libmaple/libraries/FreeRTOS/utility/list.o
 .debug_abbrev  0x00005f5e      0x112 build/../../libmaple/libraries/FreeRTOS/utility/port.o
 .debug_abbrev  0x00006070      0x1b8 build/../../libmaple/libraries/FreeRTOS/utility/queue.o
 .debug_abbrev  0x00006228       0x35 build/../../libmaple/libraries/FreeRTOS/utility/timers.o
 .debug_abbrev  0x0000625d      0x255 build/../../libmaple/libraries/FreeRTOS/utility/tasks.o
 .debug_abbrev  0x000064b2       0x90 build/../../libmaple/libraries/FreeRTOS/MapleFreeRTOS.o
 .debug_abbrev  0x00006542       0x93 build/IO.o
 .debug_abbrev  0x000065d5      0x2d1 build/Infrareds.o
 .debug_abbrev  0x000068a6       0x44 build/Sensors.o
 .debug_abbrev  0x000068ea      0x31d build/Ultrasonics.o
 .debug_abbrev  0x00006c07       0xb9 build/main.o
 .debug_abbrev  0x00006cc0       0xcb build/DriveControl.o
 .debug_abbrev  0x00006d8b       0x72 build/MiceSensors.o
 .debug_abbrev  0x00006dfd       0x14 /Users/alexanderryan/Programming/SmartMouse/MapleCode/arm/bin/../lib/gcc/arm-none-eabi/4.4.1/thumb2/libgcc.a(_arm_addsubdf3.o)
 .debug_abbrev  0x00006e11       0x14 /Users/alexanderryan/Programming/SmartMouse/MapleCode/arm/bin/../lib/gcc/arm-none-eabi/4.4.1/thumb2/libgcc.a(_arm_muldivdf3.o)
 .debug_abbrev  0x00006e25       0x14 /Users/alexanderryan/Programming/SmartMouse/MapleCode/arm/bin/../lib/gcc/arm-none-eabi/4.4.1/thumb2/libgcc.a(_arm_cmpdf2.o)
 .debug_abbrev  0x00006e39       0x14 /Users/alexanderryan/Programming/SmartMouse/MapleCode/arm/bin/../lib/gcc/arm-none-eabi/4.4.1/thumb2/libgcc.a(_arm_fixdfsi.o)
 .debug_abbrev  0x00006e4d       0x14 /Users/alexanderryan/Programming/SmartMouse/MapleCode/arm/bin/../lib/gcc/arm-none-eabi/4.4.1/thumb2/libgcc.a(_aeabi_uldivmod.o)
 .debug_abbrev  0x00006e61       0x66 /Users/alexanderryan/Programming/SmartMouse/MapleCode/arm/bin/../lib/gcc/arm-none-eabi/4.4.1/thumb2/libgcc.a(_fixdfdi.o)
 .debug_abbrev  0x00006ec7       0x7c /Users/alexanderryan/Programming/SmartMouse/MapleCode/arm/bin/../lib/gcc/arm-none-eabi/4.4.1/thumb2/libgcc.a(_fixunsdfdi.o)
 .debug_abbrev  0x00006f43       0x6c /Users/alexanderryan/Programming/SmartMouse/MapleCode/arm/bin/../lib/gcc/arm-none-eabi/4.4.1/thumb2/libgcc.a(bpabi.o)
 .debug_abbrev  0x00006faf       0x14 /Users/alexanderryan/Programming/SmartMouse/MapleCode/arm/bin/../lib/gcc/arm-none-eabi/4.4.1/thumb2/libgcc.a(_dvmd_tls.o)
 .debug_abbrev  0x00006fc3       0x14 /Users/alexanderryan/Programming/SmartMouse/MapleCode/arm/bin/../lib/gcc/arm-none-eabi/4.4.1/thumb2/libgcc.a(_arm_fixunsdfsi.o)
 .debug_abbrev  0x00006fd7      0x169 /Users/alexanderryan/Programming/SmartMouse/MapleCode/arm/bin/../lib/gcc/arm-none-eabi/4.4.1/thumb2/libgcc.a(_divdi3.o)
 .debug_abbrev  0x00007140      0x15a /Users/alexanderryan/Programming/SmartMouse/MapleCode/arm/bin/../lib/gcc/arm-none-eabi/4.4.1/thumb2/libgcc.a(_udivdi3.o)
 .debug_abbrev  0x0000729a       0x14 /Users/alexanderryan/Programming/SmartMouse/MapleCode/arm/bin/../lib/gcc/arm-none-eabi/4.4.1/thumb2/libgcc.a(_udivsi3.o)
 .debug_abbrev  0x000072ae       0x14 /Users/alexanderryan/Programming/SmartMouse/MapleCode/arm/bin/../lib/gcc/arm-none-eabi/4.4.1/thumb2/libgcc.a(_divsi3.o)
 .debug_abbrev  0x000072c2       0x12 /Users/alexanderryan/Programming/SmartMouse/MapleCode/arm/bin/../lib/gcc/arm-none-eabi/4.4.1/thumb2/crtn.o

.debug_line     0x00000000     0xc83f
 *(.debug_line)
 .debug_line    0x00000000       0x6f /Users/alexanderryan/Programming/SmartMouse/MapleCode/arm/bin/../lib/gcc/arm-none-eabi/4.4.1/thumb2/crti.o
 .debug_line    0x0000006f      0x150 build/../../libmaple/libmaple/adc.o
 .debug_line    0x000001bf      0x135 build/../../libmaple/libmaple/bkp.o
 .debug_line    0x000002f4       0xf7 build/../../libmaple/libmaple/dac.o
 .debug_line    0x000003eb      0x2c2 build/../../libmaple/libmaple/dma.o
 .debug_line    0x000006ad      0x1da build/../../libmaple/libmaple/exti.o
 .debug_line    0x00000887       0xbf build/../../libmaple/libmaple/flash.o
 .debug_line    0x00000946       0xdc build/../../libmaple/libmaple/fsmc.o
 .debug_line    0x00000a22      0x12c build/../../libmaple/libmaple/gpio.o
 .debug_line    0x00000b4e       0x8e build/../../libmaple/libmaple/iwdg.o
 .debug_line    0x00000bdc       0xcb build/../../libmaple/libmaple/nvic.o
 .debug_line    0x00000ca7       0xa7 build/../../libmaple/libmaple/pwr.o
 .debug_line    0x00000d4e      0x5e7 build/../../libmaple/libmaple/i2c.o
 .debug_line    0x00001335      0x137 build/../../libmaple/libmaple/rcc.o
 .debug_line    0x0000146c      0x21c build/../../libmaple/libmaple/spi.o
 .debug_line    0x00001688      0x43a build/../../libmaple/libmaple/syscalls.o
 .debug_line    0x00001ac2       0xc6 build/../../libmaple/libmaple/systick.o
 .debug_line    0x00001b88      0x398 build/../../libmaple/libmaple/timer.o
 .debug_line    0x00001f20      0x237 build/../../libmaple/libmaple/usart.o
 .debug_line    0x00002157      0x20e build/../../libmaple/libmaple/util.o
 .debug_line    0x00002365      0x2b7 build/../../libmaple/libmaple/usb/usb.o
 .debug_line    0x0000261c      0x112 build/../../libmaple/libmaple/usb/usb_reg_map.o
 .debug_line    0x0000272e      0x46d build/../../libmaple/libmaple/usb/usb_cdcacm.o
 .debug_line    0x00002b9b      0x312 build/../../libmaple/libmaple/usb/usb_lib/usb_core.o
 .debug_line    0x00002ead       0xc7 build/../../libmaple/libmaple/usb/usb_lib/usb_init.o
 .debug_line    0x00002f74       0xe1 build/../../libmaple/libmaple/usb/usb_lib/usb_mem.o
 .debug_line    0x00003055      0x4d5 build/../../libmaple/libmaple/usb/usb_lib/usb_regs.o
 .debug_line    0x0000352a      0x317 build/../../libmaple/wirish/wirish_math.o
 .debug_line    0x00003841      0x5a6 build/../../libmaple/wirish/Print.o
 .debug_line    0x00003de7      0x24e build/../../libmaple/wirish/boards.o
 .debug_line    0x00004035       0x47 build/../../libmaple/wirish/boards/maple.o
 .debug_line    0x0000407c       0x4c build/../../libmaple/wirish/boards/maple_mini.o
 .debug_line    0x000040c8       0x4e build/../../libmaple/wirish/boards/maple_native.o
 .debug_line    0x00004116      0x14b build/../../libmaple/wirish/boards/maple_RET6.o
 .debug_line    0x00004261       0x53 build/../../libmaple/wirish/boards/olimex_stm32_h103.o
 .debug_line    0x000042b4      0x293 build/../../libmaple/wirish/comm/HardwareSerial.o
 .debug_line    0x00004547      0x712 build/../../libmaple/wirish/comm/HardwareSPI.o
 .debug_line    0x00004c59      0x5d1 build/../../libmaple/wirish/HardwareTimer.o
 .debug_line    0x0000522a      0x647 build/../../libmaple/wirish/usb_serial.o
 .debug_line    0x00005871       0x55 build/../../libmaple/wirish/cxxabi-compat.o
 .debug_line    0x000058c6      0x4d4 build/../../libmaple/wirish/wirish_shift.o
 .debug_line    0x00005d9a      0x148 build/../../libmaple/wirish/wirish_analog.o
 .debug_line    0x00005ee2      0x177 build/../../libmaple/wirish/wirish_time.o
 .debug_line    0x00006059      0x144 build/../../libmaple/wirish/pwm.o
 .debug_line    0x0000619d      0x17c build/../../libmaple/wirish/ext_interrupts.o
 .debug_line    0x00006319      0x210 build/../../libmaple/wirish/wirish_digital.o
 .debug_line    0x00006529      0x51b build/../../libmaple/libraries/Servo/Servo.o
 .debug_line    0x00006a44      0x866 build/../../libmaple/libraries/LiquidCrystal/LiquidCrystal.o
 .debug_line    0x000072aa      0x720 build/../../libmaple/libraries/Wire/Wire.o
 .debug_line    0x000079ca      0x208 build/../../libmaple/libraries/FreeRTOS/utility/croutine.o
 .debug_line    0x00007bd2      0x3bf build/../../libmaple/libraries/FreeRTOS/utility/heap_2.o
 .debug_line    0x00007f91      0x3cb build/../../libmaple/libraries/FreeRTOS/utility/list.o
 .debug_line    0x0000835c      0x208 build/../../libmaple/libraries/FreeRTOS/utility/port.o
 .debug_line    0x00008564      0x5c3 build/../../libmaple/libraries/FreeRTOS/utility/queue.o
 .debug_line    0x00008b27      0x14e build/../../libmaple/libraries/FreeRTOS/utility/timers.o
 .debug_line    0x00008c75      0x803 build/../../libmaple/libraries/FreeRTOS/utility/tasks.o
 .debug_line    0x00009478      0x5af build/../../libmaple/libraries/FreeRTOS/MapleFreeRTOS.o
 .debug_line    0x00009a27      0x519 build/IO.o
 .debug_line    0x00009f40      0x68c build/Infrareds.o
 .debug_line    0x0000a5cc       0xf6 build/Sensors.o
 .debug_line    0x0000a6c2      0x5b1 build/Ultrasonics.o
 .debug_line    0x0000ac73      0x594 build/main.o
 .debug_line    0x0000b207      0x533 build/DriveControl.o
 .debug_line    0x0000b73a      0x4d6 build/MiceSensors.o
 .debug_line    0x0000bc10      0x20e /Users/alexanderryan/Programming/SmartMouse/MapleCode/arm/bin/../lib/gcc/arm-none-eabi/4.4.1/thumb2/libgcc.a(_arm_addsubdf3.o)
 .debug_line    0x0000be1e      0x22e /Users/alexanderryan/Programming/SmartMouse/MapleCode/arm/bin/../lib/gcc/arm-none-eabi/4.4.1/thumb2/libgcc.a(_arm_muldivdf3.o)
 .debug_line    0x0000c04c      0x114 /Users/alexanderryan/Programming/SmartMouse/MapleCode/arm/bin/../lib/gcc/arm-none-eabi/4.4.1/thumb2/libgcc.a(_arm_cmpdf2.o)
 .debug_line    0x0000c160       0x8c /Users/alexanderryan/Programming/SmartMouse/MapleCode/arm/bin/../lib/gcc/arm-none-eabi/4.4.1/thumb2/libgcc.a(_arm_fixdfsi.o)
 .debug_line    0x0000c1ec       0x77 /Users/alexanderryan/Programming/SmartMouse/MapleCode/arm/bin/../lib/gcc/arm-none-eabi/4.4.1/thumb2/libgcc.a(_aeabi_uldivmod.o)
 .debug_line    0x0000c263       0x7b /Users/alexanderryan/Programming/SmartMouse/MapleCode/arm/bin/../lib/gcc/arm-none-eabi/4.4.1/thumb2/libgcc.a(_fixdfdi.o)
 .debug_line    0x0000c2de       0x82 /Users/alexanderryan/Programming/SmartMouse/MapleCode/arm/bin/../lib/gcc/arm-none-eabi/4.4.1/thumb2/libgcc.a(_fixunsdfdi.o)
 .debug_line    0x0000c360       0x79 /Users/alexanderryan/Programming/SmartMouse/MapleCode/arm/bin/../lib/gcc/arm-none-eabi/4.4.1/thumb2/libgcc.a(bpabi.o)
 .debug_line    0x0000c3d9       0x75 /Users/alexanderryan/Programming/SmartMouse/MapleCode/arm/bin/../lib/gcc/arm-none-eabi/4.4.1/thumb2/libgcc.a(_dvmd_tls.o)
 .debug_line    0x0000c44e       0x88 /Users/alexanderryan/Programming/SmartMouse/MapleCode/arm/bin/../lib/gcc/arm-none-eabi/4.4.1/thumb2/libgcc.a(_arm_fixunsdfsi.o)
 .debug_line    0x0000c4d6       0xe1 /Users/alexanderryan/Programming/SmartMouse/MapleCode/arm/bin/../lib/gcc/arm-none-eabi/4.4.1/thumb2/libgcc.a(_divdi3.o)
 .debug_line    0x0000c5b7       0xd5 /Users/alexanderryan/Programming/SmartMouse/MapleCode/arm/bin/../lib/gcc/arm-none-eabi/4.4.1/thumb2/libgcc.a(_udivdi3.o)
 .debug_line    0x0000c68c       0x98 /Users/alexanderryan/Programming/SmartMouse/MapleCode/arm/bin/../lib/gcc/arm-none-eabi/4.4.1/thumb2/libgcc.a(_udivsi3.o)
 .debug_line    0x0000c724       0xa9 /Users/alexanderryan/Programming/SmartMouse/MapleCode/arm/bin/../lib/gcc/arm-none-eabi/4.4.1/thumb2/libgcc.a(_divsi3.o)
 .debug_line    0x0000c7cd       0x72 /Users/alexanderryan/Programming/SmartMouse/MapleCode/arm/bin/../lib/gcc/arm-none-eabi/4.4.1/thumb2/crtn.o

.debug_frame    0x00000000     0x3eac
 *(.debug_frame)
 .debug_frame   0x00000000       0xb4 build/../../libmaple/libmaple/adc.o
 .debug_frame   0x000000b4       0xbc build/../../libmaple/libmaple/bkp.o
 .debug_frame   0x00000170       0x6c build/../../libmaple/libmaple/dac.o
 .debug_frame   0x000001dc      0x284 build/../../libmaple/libmaple/dma.o
 .debug_frame   0x00000460      0x12c build/../../libmaple/libmaple/exti.o
 .debug_frame   0x0000058c       0x30 build/../../libmaple/libmaple/flash.o
 .debug_frame   0x000005bc       0x30 build/../../libmaple/libmaple/fsmc.o
 .debug_frame   0x000005ec       0xb0 build/../../libmaple/libmaple/gpio.o
 .debug_frame   0x0000069c       0x30 build/../../libmaple/libmaple/iwdg.o
 .debug_frame   0x000006cc       0x5c build/../../libmaple/libmaple/nvic.o
 .debug_frame   0x00000728       0x2c build/../../libmaple/libmaple/pwr.o
 .debug_frame   0x00000754      0x1ac build/../../libmaple/libmaple/i2c.o
 .debug_frame   0x00000900       0x9c build/../../libmaple/libmaple/rcc.o
 .debug_frame   0x0000099c      0x13c build/../../libmaple/libmaple/spi.o
 .debug_frame   0x00000ad8      0x104 build/../../libmaple/libmaple/syscalls.o
 .debug_frame   0x00000bdc       0x6c build/../../libmaple/libmaple/systick.o
 .debug_frame   0x00000c48      0x2d4 build/../../libmaple/libmaple/timer.o
 .debug_frame   0x00000f1c      0x168 build/../../libmaple/libmaple/usart.o
 .debug_frame   0x00001084      0x134 build/../../libmaple/libmaple/util.o
 .debug_frame   0x000011b8       0xfc build/../../libmaple/libmaple/usb/usb.o
 .debug_frame   0x000012b4       0x84 build/../../libmaple/libmaple/usb/usb_reg_map.o
 .debug_frame   0x00001338      0x270 build/../../libmaple/libmaple/usb/usb_cdcacm.o
 .debug_frame   0x000015a8      0x1dc build/../../libmaple/libmaple/usb/usb_lib/usb_core.o
 .debug_frame   0x00001784       0x2c build/../../libmaple/libmaple/usb/usb_lib/usb_init.o
 .debug_frame   0x000017b0       0x3c build/../../libmaple/libmaple/usb/usb_lib/usb_mem.o
 .debug_frame   0x000017ec      0x3dc build/../../libmaple/libmaple/usb/usb_lib/usb_regs.o
 .debug_frame   0x00001bc8       0x58 build/../../libmaple/wirish/wirish_math.o
 .debug_frame   0x00001c20      0x330 build/../../libmaple/wirish/Print.o
 .debug_frame   0x00001f50       0x8c build/../../libmaple/wirish/boards.o
 .debug_frame   0x00001fdc       0x40 build/../../libmaple/wirish/boards/maple_RET6.o
 .debug_frame   0x0000201c      0x11c build/../../libmaple/wirish/comm/HardwareSerial.o
 .debug_frame   0x00002138      0x2a0 build/../../libmaple/wirish/comm/HardwareSPI.o
 .debug_frame   0x000023d8      0x1a0 build/../../libmaple/wirish/HardwareTimer.o
 .debug_frame   0x00002578      0x19c build/../../libmaple/wirish/usb_serial.o
 .debug_frame   0x00002714       0x20 build/../../libmaple/wirish/cxxabi-compat.o
 .debug_frame   0x00002734       0x38 build/../../libmaple/wirish/wirish_shift.o
 .debug_frame   0x0000276c       0x20 build/../../libmaple/wirish/wirish_analog.o
 .debug_frame   0x0000278c       0x40 build/../../libmaple/wirish/wirish_time.o
 .debug_frame   0x000027cc       0x20 build/../../libmaple/wirish/pwm.o
 .debug_frame   0x000027ec       0x40 build/../../libmaple/wirish/ext_interrupts.o
 .debug_frame   0x0000282c       0xa8 build/../../libmaple/wirish/wirish_digital.o
 .debug_frame   0x000028d4      0x16c build/../../libmaple/libraries/Servo/Servo.o
 .debug_frame   0x00002a40      0x3e0 build/../../libmaple/libraries/LiquidCrystal/LiquidCrystal.o
 .debug_frame   0x00002e20      0x2b4 build/../../libmaple/libraries/Wire/Wire.o
 .debug_frame   0x000030d4       0xa4 build/../../libmaple/libraries/FreeRTOS/utility/croutine.o
 .debug_frame   0x00003178       0x70 build/../../libmaple/libraries/FreeRTOS/utility/heap_2.o
 .debug_frame   0x000031e8       0x6c build/../../libmaple/libraries/FreeRTOS/utility/list.o
 .debug_frame   0x00003254       0xd4 build/../../libmaple/libraries/FreeRTOS/utility/port.o
 .debug_frame   0x00003328      0x210 build/../../libmaple/libraries/FreeRTOS/utility/queue.o
 .debug_frame   0x00003538      0x3d4 build/../../libmaple/libraries/FreeRTOS/utility/tasks.o
 .debug_frame   0x0000390c       0x20 build/../../libmaple/libraries/FreeRTOS/MapleFreeRTOS.o
 .debug_frame   0x0000392c       0x2c build/IO.o
 .debug_frame   0x00003958      0x18c build/Infrareds.o
 .debug_frame   0x00003ae4       0x2c build/Sensors.o
 .debug_frame   0x00003b10       0xd4 build/Ultrasonics.o
 .debug_frame   0x00003be4       0x8c build/main.o
 .debug_frame   0x00003c70       0x8c build/DriveControl.o
 .debug_frame   0x00003cfc       0x20 build/MiceSensors.o
 .debug_frame   0x00003d1c       0x38 /Users/alexanderryan/Programming/SmartMouse/MapleCode/arm/bin/../lib/gcc/arm-none-eabi/4.4.1/thumb2/libgcc.a(_fixdfdi.o)
 .debug_frame   0x00003d54       0x30 /Users/alexanderryan/Programming/SmartMouse/MapleCode/arm/bin/../lib/gcc/arm-none-eabi/4.4.1/thumb2/libgcc.a(_fixunsdfdi.o)
 .debug_frame   0x00003d84       0x60 /Users/alexanderryan/Programming/SmartMouse/MapleCode/arm/bin/../lib/gcc/arm-none-eabi/4.4.1/thumb2/libgcc.a(bpabi.o)
 .debug_frame   0x00003de4       0x44 /Users/alexanderryan/Programming/SmartMouse/MapleCode/arm/bin/../lib/gcc/arm-none-eabi/4.4.1/thumb2/libgcc.a(_divdi3.o)
 .debug_frame   0x00003e28       0x44 /Users/alexanderryan/Programming/SmartMouse/MapleCode/arm/bin/../lib/gcc/arm-none-eabi/4.4.1/thumb2/libgcc.a(_udivdi3.o)
 .debug_frame   0x00003e6c       0x20 /Users/alexanderryan/Programming/SmartMouse/MapleCode/arm/bin/../lib/gcc/arm-none-eabi/4.4.1/thumb2/libgcc.a(_udivsi3.o)
 .debug_frame   0x00003e8c       0x20 /Users/alexanderryan/Programming/SmartMouse/MapleCode/arm/bin/../lib/gcc/arm-none-eabi/4.4.1/thumb2/libgcc.a(_divsi3.o)

.debug_str      0x00000000     0x8606
 *(.debug_str)
 .debug_str     0x00000000      0x557 build/../../libmaple/libmaple/adc.o
                                0x5b2 (size before relaxing)
 .debug_str     0x00000557      0x156 build/../../libmaple/libmaple/bkp.o
                                0x3e3 (size before relaxing)
 .debug_str     0x000006ad      0x1e7 build/../../libmaple/libmaple/dac.o
                                0x46f (size before relaxing)
 .debug_str     0x00000894      0x879 build/../../libmaple/libmaple/dma.o
                                0xbca (size before relaxing)
 .debug_str     0x0000110d      0x247 build/../../libmaple/libmaple/exti.o
                                0x7ed (size before relaxing)
 .debug_str     0x00001354       0x6f build/../../libmaple/libmaple/flash.o
                                0x161 (size before relaxing)
 .debug_str     0x000013c3       0x34 build/../../libmaple/libmaple/fsmc.o
                                0x3cf (size before relaxing)
 .debug_str     0x000013f7      0x2de build/../../libmaple/libmaple/gpio.o
                                0x775 (size before relaxing)
 .debug_str     0x000016d5       0xa3 build/../../libmaple/libmaple/iwdg.o
                                0x17e (size before relaxing)
 .debug_str     0x00001778       0xc9 build/../../libmaple/libmaple/nvic.o
                                0x59d (size before relaxing)
 .debug_str     0x00001841       0x27 build/../../libmaple/libmaple/pwr.o
                                0x271 (size before relaxing)
 .debug_str     0x00001868      0x2f3 build/../../libmaple/libmaple/i2c.o
                                0xce4 (size before relaxing)
 .debug_str     0x00001b5b      0x2d6 build/../../libmaple/libmaple/rcc.o
                                0x599 (size before relaxing)
 .debug_str     0x00001e31      0x37d build/../../libmaple/libmaple/spi.o
                                0xafc (size before relaxing)
 .debug_str     0x000021ae      0x17f build/../../libmaple/libmaple/syscalls.o
                                0x292 (size before relaxing)
 .debug_str     0x0000232d       0xa5 build/../../libmaple/libmaple/systick.o
                                0x187 (size before relaxing)
 .debug_str     0x000023d2      0x54d build/../../libmaple/libmaple/timer.o
                                0xcb0 (size before relaxing)
 .debug_str     0x0000291f      0x208 build/../../libmaple/libmaple/usart.o
                                0x8e1 (size before relaxing)
 .debug_str     0x00002b27       0xf8 build/../../libmaple/libmaple/util.o
                                0x9a4 (size before relaxing)
 .debug_str     0x00002c1f      0x5b1 build/../../libmaple/libmaple/usb/usb.o
                                0x922 (size before relaxing)
 .debug_str     0x000031d0       0xa2 build/../../libmaple/libmaple/usb/usb_reg_map.o
                                0x1ab (size before relaxing)
 .debug_str     0x00003272      0x803 build/../../libmaple/libmaple/usb/usb_cdcacm.o
                               0x1500 (size before relaxing)
 .debug_str     0x00003a75      0x3f8 build/../../libmaple/libmaple/usb/usb_lib/usb_core.o
                                0x98a (size before relaxing)
 .debug_str     0x00003e6d       0x5a build/../../libmaple/libmaple/usb/usb_lib/usb_init.o
                                0x475 (size before relaxing)
 .debug_str     0x00003ec7       0x86 build/../../libmaple/libmaple/usb/usb_lib/usb_mem.o
                                0x12b (size before relaxing)
 .debug_str     0x00003f4d      0x3f2 build/../../libmaple/libmaple/usb/usb_lib/usb_regs.o
                                0x4b3 (size before relaxing)
 .debug_str     0x0000433f       0x93 build/../../libmaple/wirish/wirish_math.o
                                0x170 (size before relaxing)
 .debug_str     0x000043d2      0x2b4 build/../../libmaple/wirish/Print.o
                                0x3e2 (size before relaxing)
 .debug_str     0x00004686      0x364 build/../../libmaple/wirish/boards.o
                                0xcdc (size before relaxing)
 .debug_str     0x000049ea       0x27 build/../../libmaple/wirish/boards/maple.o
                                 0x7c (size before relaxing)
 .debug_str     0x00004a11       0x2c build/../../libmaple/wirish/boards/maple_mini.o
                                 0x81 (size before relaxing)
 .debug_str     0x00004a3d       0x2e build/../../libmaple/wirish/boards/maple_native.o
                                 0x83 (size before relaxing)
 .debug_str     0x00004a6b      0x10b build/../../libmaple/wirish/boards/maple_RET6.o
                                0x5bd (size before relaxing)
 .debug_str     0x00004b76       0x33 build/../../libmaple/wirish/boards/olimex_stm32_h103.o
                                 0x88 (size before relaxing)
 .debug_str     0x00004ba9      0x174 build/../../libmaple/wirish/comm/HardwareSerial.o
                                0xbe7 (size before relaxing)
 .debug_str     0x00004d1d      0x3a0 build/../../libmaple/wirish/comm/HardwareSPI.o
                                0xed6 (size before relaxing)
 .debug_str     0x000050bd      0x904 build/../../libmaple/wirish/HardwareTimer.o
                                0xe01 (size before relaxing)
 .debug_str     0x000059c1      0x193 build/../../libmaple/wirish/usb_serial.o
                                0x58e (size before relaxing)
 .debug_str     0x00005b54       0x3b build/../../libmaple/wirish/cxxabi-compat.o
                                 0x90 (size before relaxing)
 .debug_str     0x00005b8f       0x51 build/../../libmaple/wirish/wirish_shift.o
                                0x174 (size before relaxing)
 .debug_str     0x00005be0       0x43 build/../../libmaple/wirish/wirish_analog.o
                                0x4fe (size before relaxing)
 .debug_str     0x00005c23       0x59 build/../../libmaple/wirish/wirish_time.o
                                0x155 (size before relaxing)
 .debug_str     0x00005c7c       0x40 build/../../libmaple/wirish/pwm.o
                                0x51b (size before relaxing)
 .debug_str     0x00005cbc       0x97 build/../../libmaple/wirish/ext_interrupts.o
                                0x6ac (size before relaxing)
 .debug_str     0x00005d53      0x156 build/../../libmaple/wirish/wirish_digital.o
                                0x765 (size before relaxing)
 .debug_str     0x00005ea9      0x1aa build/../../libmaple/libraries/Servo/Servo.o
                                0x81d (size before relaxing)
 .debug_str     0x00006053      0x4ba build/../../libmaple/libraries/LiquidCrystal/LiquidCrystal.o
                                0x696 (size before relaxing)
 .debug_str     0x0000650d      0x369 build/../../libmaple/libraries/Wire/Wire.o
                                0x595 (size before relaxing)
 .debug_str     0x00006876      0x365 build/../../libmaple/libraries/FreeRTOS/utility/croutine.o
                                0x40d (size before relaxing)
 .debug_str     0x00006bdb      0x16e build/../../libmaple/libraries/FreeRTOS/utility/heap_2.o
                                0x258 (size before relaxing)
 .debug_str     0x00006d49       0xb9 build/../../libmaple/libraries/FreeRTOS/utility/list.o
                                0x23e (size before relaxing)
 .debug_str     0x00006e02      0x13b build/../../libmaple/libraries/FreeRTOS/utility/port.o
                                0x1d5 (size before relaxing)
 .debug_str     0x00006f3d      0x3b1 build/../../libmaple/libraries/FreeRTOS/utility/queue.o
                                0x550 (size before relaxing)
 .debug_str     0x000072ee       0x33 build/../../libmaple/libraries/FreeRTOS/utility/timers.o
                                 0xcd (size before relaxing)
 .debug_str     0x00007321      0x76d build/../../libmaple/libraries/FreeRTOS/utility/tasks.o
                                0x9e9 (size before relaxing)
 .debug_str     0x00007a8e       0x52 build/../../libmaple/libraries/FreeRTOS/MapleFreeRTOS.o
                                0x184 (size before relaxing)
 .debug_str     0x00007ae0       0x6b build/IO.o
                                0x1ac (size before relaxing)
 .debug_str     0x00007b4b      0x421 build/Infrareds.o
                               0x114b (size before relaxing)
 .debug_str     0x00007f6c       0x1f build/Sensors.o
                                 0xe9 (size before relaxing)
 .debug_str     0x00007f8b      0x29a build/Ultrasonics.o
                               0x1059 (size before relaxing)
 .debug_str     0x00008225      0x109 build/main.o
                                0x236 (size before relaxing)
 .debug_str     0x0000832e       0xdf build/DriveControl.o
                                0x278 (size before relaxing)
 .debug_str     0x0000840d       0x37 build/MiceSensors.o
                                0x14b (size before relaxing)
 .debug_str     0x00008444       0xb6 /Users/alexanderryan/Programming/SmartMouse/MapleCode/arm/bin/../lib/gcc/arm-none-eabi/4.4.1/thumb2/libgcc.a(_fixdfdi.o)
                                0x156 (size before relaxing)
 .debug_str     0x000084fa       0x1d /Users/alexanderryan/Programming/SmartMouse/MapleCode/arm/bin/../lib/gcc/arm-none-eabi/4.4.1/thumb2/libgcc.a(_fixunsdfdi.o)
                                0x162 (size before relaxing)
 .debug_str     0x00008517       0x73 /Users/alexanderryan/Programming/SmartMouse/MapleCode/arm/bin/../lib/gcc/arm-none-eabi/4.4.1/thumb2/libgcc.a(bpabi.o)
                                0x100 (size before relaxing)
 .debug_str     0x0000858a       0x72 /Users/alexanderryan/Programming/SmartMouse/MapleCode/arm/bin/../lib/gcc/arm-none-eabi/4.4.1/thumb2/libgcc.a(_divdi3.o)
                                0x1ce (size before relaxing)
 .debug_str     0x000085fc        0xa /Users/alexanderryan/Programming/SmartMouse/MapleCode/arm/bin/../lib/gcc/arm-none-eabi/4.4.1/thumb2/libgcc.a(_udivdi3.o)
                                0x1cf (size before relaxing)

.debug_loc      0x00000000     0xa1c3
 *(.debug_loc)
 .debug_loc     0x00000000      0x104 build/../../libmaple/libmaple/adc.o
 .debug_loc     0x00000104      0x108 build/../../libmaple/libmaple/bkp.o
 .debug_loc     0x0000020c       0xea build/../../libmaple/libmaple/dac.o
 .debug_loc     0x000002f6      0x583 build/../../libmaple/libmaple/dma.o
 .debug_loc     0x00000879      0x1d1 build/../../libmaple/libmaple/exti.o
 .debug_loc     0x00000a4a       0x1f build/../../libmaple/libmaple/fsmc.o
 .debug_loc     0x00000a69      0x1a1 build/../../libmaple/libmaple/gpio.o
 .debug_loc     0x00000c0a       0x26 build/../../libmaple/libmaple/iwdg.o
 .debug_loc     0x00000c30       0x89 build/../../libmaple/libmaple/nvic.o
 .debug_loc     0x00000cb9       0x1f build/../../libmaple/libmaple/pwr.o
 .debug_loc     0x00000cd8      0x400 build/../../libmaple/libmaple/i2c.o
 .debug_loc     0x000010d8      0x121 build/../../libmaple/libmaple/rcc.o
 .debug_loc     0x000011f9      0x31b build/../../libmaple/libmaple/spi.o
 .debug_loc     0x00001514      0x188 build/../../libmaple/libmaple/syscalls.o
 .debug_loc     0x0000169c       0x32 build/../../libmaple/libmaple/systick.o
 .debug_loc     0x000016ce      0x79b build/../../libmaple/libmaple/timer.o
 .debug_loc     0x00001e69      0x26e build/../../libmaple/libmaple/usart.o
 .debug_loc     0x000020d7      0x22c build/../../libmaple/libmaple/util.o
 .debug_loc     0x00002303      0x160 build/../../libmaple/libmaple/usb/usb.o
 .debug_loc     0x00002463      0x168 build/../../libmaple/libmaple/usb/usb_reg_map.o
 .debug_loc     0x000025cb      0x49a build/../../libmaple/libmaple/usb/usb_cdcacm.o
 .debug_loc     0x00002a65      0x677 build/../../libmaple/libmaple/usb/usb_lib/usb_core.o
 .debug_loc     0x000030dc       0x1f build/../../libmaple/libmaple/usb/usb_lib/usb_init.o
 .debug_loc     0x000030fb       0x6b build/../../libmaple/libmaple/usb/usb_lib/usb_mem.o
 .debug_loc     0x00003166      0x5fc build/../../libmaple/libmaple/usb/usb_lib/usb_regs.o
 .debug_loc     0x00003762       0xb6 build/../../libmaple/wirish/wirish_math.o
 .debug_loc     0x00003818      0xacf build/../../libmaple/wirish/Print.o
 .debug_loc     0x000042e7      0x12f build/../../libmaple/wirish/boards.o
 .debug_loc     0x00004416       0x1f build/../../libmaple/wirish/boards/maple_RET6.o
 .debug_loc     0x00004435      0x296 build/../../libmaple/wirish/comm/HardwareSerial.o
 .debug_loc     0x000046cb      0x761 build/../../libmaple/wirish/comm/HardwareSPI.o
 .debug_loc     0x00004e2c      0x373 build/../../libmaple/wirish/HardwareTimer.o
 .debug_loc     0x0000519f      0x3a2 build/../../libmaple/wirish/usb_serial.o
 .debug_loc     0x00005541       0x97 build/../../libmaple/wirish/wirish_shift.o
 .debug_loc     0x000055d8       0x26 build/../../libmaple/wirish/wirish_analog.o
 .debug_loc     0x000055fe       0x63 build/../../libmaple/wirish/wirish_time.o
 .debug_loc     0x00005661       0x3c build/../../libmaple/wirish/pwm.o
 .debug_loc     0x0000569d      0x12e build/../../libmaple/wirish/ext_interrupts.o
 .debug_loc     0x000057cb      0x263 build/../../libmaple/wirish/wirish_digital.o
 .debug_loc     0x00005a2e      0x3dd build/../../libmaple/libraries/Servo/Servo.o
 .debug_loc     0x00005e0b     0x110b build/../../libmaple/libraries/LiquidCrystal/LiquidCrystal.o
 .debug_loc     0x00006f16      0x713 build/../../libmaple/libraries/Wire/Wire.o
 .debug_loc     0x00007629      0x156 build/../../libmaple/libraries/FreeRTOS/utility/croutine.o
 .debug_loc     0x0000777f      0x1d5 build/../../libmaple/libraries/FreeRTOS/utility/heap_2.o
 .debug_loc     0x00007954       0x63 build/../../libmaple/libraries/FreeRTOS/utility/list.o
 .debug_loc     0x000079b7       0x99 build/../../libmaple/libraries/FreeRTOS/utility/port.o
 .debug_loc     0x00007a50      0x732 build/../../libmaple/libraries/FreeRTOS/utility/queue.o
 .debug_loc     0x00008182      0xa32 build/../../libmaple/libraries/FreeRTOS/utility/tasks.o
 .debug_loc     0x00008bb4       0x1f build/IO.o
 .debug_loc     0x00008bd3      0x1da build/Infrareds.o
 .debug_loc     0x00008dad       0x1f build/Sensors.o
 .debug_loc     0x00008dcc       0xad build/Ultrasonics.o
 .debug_loc     0x00008e79       0x1f build/main.o
 .debug_loc     0x00008e98      0x182 build/DriveControl.o
 .debug_loc     0x0000901a       0x67 /Users/alexanderryan/Programming/SmartMouse/MapleCode/arm/bin/../lib/gcc/arm-none-eabi/4.4.1/thumb2/libgcc.a(_fixdfdi.o)
 .debug_loc     0x00009081       0x57 /Users/alexanderryan/Programming/SmartMouse/MapleCode/arm/bin/../lib/gcc/arm-none-eabi/4.4.1/thumb2/libgcc.a(_fixunsdfdi.o)
 .debug_loc     0x000090d8      0x11e /Users/alexanderryan/Programming/SmartMouse/MapleCode/arm/bin/../lib/gcc/arm-none-eabi/4.4.1/thumb2/libgcc.a(bpabi.o)
 .debug_loc     0x000091f6      0x7bb /Users/alexanderryan/Programming/SmartMouse/MapleCode/arm/bin/../lib/gcc/arm-none-eabi/4.4.1/thumb2/libgcc.a(_divdi3.o)
 .debug_loc     0x000099b1      0x812 /Users/alexanderryan/Programming/SmartMouse/MapleCode/arm/bin/../lib/gcc/arm-none-eabi/4.4.1/thumb2/libgcc.a(_udivdi3.o)

.debug_macinfo  0x00000000   0x1b78fa
 *(.debug_macinfo)
 .debug_macinfo
                0x00000000     0x47d7 build/../../libmaple/libmaple/adc.o
 .debug_macinfo
                0x000047d7     0x3e95 build/../../libmaple/libmaple/bkp.o
 .debug_macinfo
                0x0000866c     0x52db build/../../libmaple/libmaple/dac.o
 .debug_macinfo
                0x0000d947     0x4c19 build/../../libmaple/libmaple/dma.o
 .debug_macinfo
                0x00012560     0x5013 build/../../libmaple/libmaple/exti.o
 .debug_macinfo
                0x00017573     0x180b build/../../libmaple/libmaple/flash.o
 .debug_macinfo
                0x00018d7e     0x5e97 build/../../libmaple/libmaple/fsmc.o
 .debug_macinfo
                0x0001ec15     0x4f36 build/../../libmaple/libmaple/gpio.o
 .debug_macinfo
                0x00023b4b     0x10b6 build/../../libmaple/libmaple/iwdg.o
 .debug_macinfo
                0x00024c01     0x19e7 build/../../libmaple/libmaple/nvic.o
 .debug_macinfo
                0x000265e8     0x3b46 build/../../libmaple/libmaple/pwr.o
 .debug_macinfo
                0x0002a12e     0x7369 build/../../libmaple/libmaple/i2c.o
 .debug_macinfo
                0x00031497     0x41c1 build/../../libmaple/libmaple/rcc.o
 .debug_macinfo
                0x00035658     0x5f64 build/../../libmaple/libmaple/spi.o
 .debug_macinfo
                0x0003b5bc     0x3ff2 build/../../libmaple/libmaple/syscalls.o
 .debug_macinfo
                0x0003f5ae     0x1114 build/../../libmaple/libmaple/systick.o
 .debug_macinfo
                0x000406c2     0x6354 build/../../libmaple/libmaple/timer.o
 .debug_macinfo
                0x00046a16     0x48b6 build/../../libmaple/libmaple/usart.o
 .debug_macinfo
                0x0004b2cc     0x942a build/../../libmaple/libmaple/util.o
 .debug_macinfo
                0x000546f6     0x5ee5 build/../../libmaple/libmaple/usb/usb.o
 .debug_macinfo
                0x0005a5db     0x1c7f build/../../libmaple/libmaple/usb/usb_reg_map.o
 .debug_macinfo
                0x0005c25a     0x6602 build/../../libmaple/libmaple/usb/usb_cdcacm.o
 .debug_macinfo
                0x0006285c     0x2cfa build/../../libmaple/libmaple/usb/usb_lib/usb_core.o
 .debug_macinfo
                0x00065556     0x2b48 build/../../libmaple/libmaple/usb/usb_lib/usb_init.o
 .debug_macinfo
                0x0006809e     0x2b48 build/../../libmaple/libmaple/usb/usb_lib/usb_mem.o
 .debug_macinfo
                0x0006abe6     0x2b48 build/../../libmaple/libmaple/usb/usb_lib/usb_regs.o
 .debug_macinfo
                0x0006d72e     0x3834 build/../../libmaple/wirish/wirish_math.o
 .debug_macinfo
                0x00070f62     0x3ae2 build/../../libmaple/wirish/Print.o
 .debug_macinfo
                0x00074a44     0x9164 build/../../libmaple/wirish/boards.o
 .debug_macinfo
                0x0007dba8      0xdc6 build/../../libmaple/wirish/boards/maple.o
 .debug_macinfo
                0x0007e96e      0xdc6 build/../../libmaple/wirish/boards/maple_mini.o
 .debug_macinfo
                0x0007f734      0xdc6 build/../../libmaple/wirish/boards/maple_native.o
 .debug_macinfo
                0x000804fa     0x884c build/../../libmaple/wirish/boards/maple_RET6.o
 .debug_macinfo
                0x00088d46      0xdc6 build/../../libmaple/wirish/boards/olimex_stm32_h103.o
 .debug_macinfo
                0x00089b0c     0x9946 build/../../libmaple/wirish/comm/HardwareSerial.o
 .debug_macinfo
                0x00093452     0xf68b build/../../libmaple/wirish/comm/HardwareSPI.o
 .debug_macinfo
                0x000a2add     0xb261 build/../../libmaple/wirish/HardwareTimer.o
 .debug_macinfo
                0x000add3e     0xf881 build/../../libmaple/wirish/usb_serial.o
 .debug_macinfo
                0x000bd5bf      0xdc6 build/../../libmaple/wirish/cxxabi-compat.o
 .debug_macinfo
                0x000be385     0xf67f build/../../libmaple/wirish/wirish_shift.o
 .debug_macinfo
                0x000cda04     0x88dc build/../../libmaple/wirish/wirish_analog.o
 .debug_macinfo
                0x000d62e0     0x8ac5 build/../../libmaple/wirish/wirish_time.o
 .debug_macinfo
                0x000deda5     0x88df build/../../libmaple/wirish/pwm.o
 .debug_macinfo
                0x000e7684     0x891a build/../../libmaple/wirish/ext_interrupts.o
 .debug_macinfo
                0x000eff9e     0x8afe build/../../libmaple/wirish/wirish_digital.o
 .debug_macinfo
                0x000f8a9c     0xb530 build/../../libmaple/libraries/Servo/Servo.o
 .debug_macinfo
                0x00103fcc    0x1094f build/../../libmaple/libraries/LiquidCrystal/LiquidCrystal.o
 .debug_macinfo
                0x0011491b     0xf74f build/../../libmaple/libraries/Wire/Wire.o
 .debug_macinfo
                0x0012406a     0x32fa build/../../libmaple/libraries/FreeRTOS/utility/croutine.o
 .debug_macinfo
                0x00127364     0x4b68 build/../../libmaple/libraries/FreeRTOS/utility/heap_2.o
 .debug_macinfo
                0x0012becc     0x44b9 build/../../libmaple/libraries/FreeRTOS/utility/list.o
 .debug_macinfo
                0x00130385     0x2e2d build/../../libmaple/libraries/FreeRTOS/utility/port.o
 .debug_macinfo
                0x001331b2     0x51b5 build/../../libmaple/libraries/FreeRTOS/utility/queue.o
 .debug_macinfo
                0x00138367     0x38eb build/../../libmaple/libraries/FreeRTOS/utility/timers.o
 .debug_macinfo
                0x0013bc52     0x65c5 build/../../libmaple/libraries/FreeRTOS/utility/tasks.o
 .debug_macinfo
                0x00142217    0x12287 build/../../libmaple/libraries/FreeRTOS/MapleFreeRTOS.o
 .debug_macinfo
                0x0015449e     0xfaaf build/IO.o
 .debug_macinfo
                0x00163f4d     0xf9cb build/Infrareds.o
 .debug_macinfo
                0x00173918     0x4bc1 build/Sensors.o
 .debug_macinfo
                0x001784d9    0x10b47 build/Ultrasonics.o
 .debug_macinfo
                0x00189020     0xfabf build/main.o
 .debug_macinfo
                0x00198adf     0xf786 build/DriveControl.o
 .debug_macinfo
                0x001a8265     0xf695 build/MiceSensors.o

.debug_weaknames
 *(.debug_weaknames)

.debug_funcnames
 *(.debug_funcnames)

.debug_typenames
 *(.debug_typenames)

.debug_varnames
 *(.debug_varnames)

.note.gnu.arm.ident
 *(.note.gnu.arm.ident)

.ARM.attributes
                0x00000000       0x27
 *(.ARM.attributes)
 .ARM.attributes
                0x00000000       0x19 /Users/alexanderryan/Programming/SmartMouse/MapleCode/arm/bin/../lib/gcc/arm-none-eabi/4.4.1/thumb2/crti.o
 .ARM.attributes
                0x00000019       0x29 /Users/alexanderryan/Programming/SmartMouse/MapleCode/arm/bin/../lib/gcc/arm-none-eabi/4.4.1/thumb2/crtbegin.o
 .ARM.attributes
                0x00000042       0x31 build/../../libmaple/libmaple/adc.o
 .ARM.attributes
                0x00000073       0x31 build/../../libmaple/libmaple/bkp.o
 .ARM.attributes
                0x000000a4       0x31 build/../../libmaple/libmaple/dac.o
 .ARM.attributes
                0x000000d5       0x31 build/../../libmaple/libmaple/dma.o
 .ARM.attributes
                0x00000106       0x31 build/../../libmaple/libmaple/exti.o
 .ARM.attributes
                0x00000137       0x31 build/../../libmaple/libmaple/flash.o
 .ARM.attributes
                0x00000168       0x31 build/../../libmaple/libmaple/fsmc.o
 .ARM.attributes
                0x00000199       0x31 build/../../libmaple/libmaple/gpio.o
 .ARM.attributes
                0x000001ca       0x31 build/../../libmaple/libmaple/iwdg.o
 .ARM.attributes
                0x000001fb       0x31 build/../../libmaple/libmaple/nvic.o
 .ARM.attributes
                0x0000022c       0x31 build/../../libmaple/libmaple/pwr.o
 .ARM.attributes
                0x0000025d       0x31 build/../../libmaple/libmaple/i2c.o
 .ARM.attributes
                0x0000028e       0x31 build/../../libmaple/libmaple/rcc.o
 .ARM.attributes
                0x000002bf       0x31 build/../../libmaple/libmaple/spi.o
 .ARM.attributes
                0x000002f0       0x31 build/../../libmaple/libmaple/syscalls.o
 .ARM.attributes
                0x00000321       0x31 build/../../libmaple/libmaple/systick.o
 .ARM.attributes
                0x00000352       0x31 build/../../libmaple/libmaple/timer.o
 .ARM.attributes
                0x00000383       0x31 build/../../libmaple/libmaple/usart.o
 .ARM.attributes
                0x000003b4       0x31 build/../../libmaple/libmaple/util.o
 .ARM.attributes
                0x000003e5       0x31 build/../../libmaple/libmaple/usb/usb.o
 .ARM.attributes
                0x00000416       0x31 build/../../libmaple/libmaple/usb/usb_reg_map.o
 .ARM.attributes
                0x00000447       0x31 build/../../libmaple/libmaple/usb/usb_cdcacm.o
 .ARM.attributes
                0x00000478       0x31 build/../../libmaple/libmaple/usb/usb_lib/usb_core.o
 .ARM.attributes
                0x000004a9       0x31 build/../../libmaple/libmaple/usb/usb_lib/usb_init.o
 .ARM.attributes
                0x000004da       0x31 build/../../libmaple/libmaple/usb/usb_lib/usb_mem.o
 .ARM.attributes
                0x0000050b       0x31 build/../../libmaple/libmaple/usb/usb_lib/usb_regs.o
 .ARM.attributes
                0x0000053c       0x1b build/../../libmaple/libmaple/exc.o
 .ARM.attributes
                0x00000557       0x31 build/../../libmaple/wirish/wirish_math.o
 .ARM.attributes
                0x00000588       0x31 build/../../libmaple/wirish/Print.o
 .ARM.attributes
                0x000005b9       0x31 build/../../libmaple/wirish/boards.o
 .ARM.attributes
                0x000005ea       0x31 build/../../libmaple/wirish/boards/maple.o
 .ARM.attributes
                0x0000061b       0x31 build/../../libmaple/wirish/boards/maple_mini.o
 .ARM.attributes
                0x0000064c       0x31 build/../../libmaple/wirish/boards/maple_native.o
 .ARM.attributes
                0x0000067d       0x31 build/../../libmaple/wirish/boards/maple_RET6.o
 .ARM.attributes
                0x000006ae       0x31 build/../../libmaple/wirish/boards/olimex_stm32_h103.o
 .ARM.attributes
                0x000006df       0x31 build/../../libmaple/wirish/comm/HardwareSerial.o
 .ARM.attributes
                0x00000710       0x31 build/../../libmaple/wirish/comm/HardwareSPI.o
 .ARM.attributes
                0x00000741       0x31 build/../../libmaple/wirish/HardwareTimer.o
 .ARM.attributes
                0x00000772       0x31 build/../../libmaple/wirish/usb_serial.o
 .ARM.attributes
                0x000007a3       0x31 build/../../libmaple/wirish/cxxabi-compat.o
 .ARM.attributes
                0x000007d4       0x31 build/../../libmaple/wirish/wirish_shift.o
 .ARM.attributes
                0x00000805       0x31 build/../../libmaple/wirish/wirish_analog.o
 .ARM.attributes
                0x00000836       0x31 build/../../libmaple/wirish/wirish_time.o
 .ARM.attributes
                0x00000867       0x31 build/../../libmaple/wirish/pwm.o
 .ARM.attributes
                0x00000898       0x31 build/../../libmaple/wirish/ext_interrupts.o
 .ARM.attributes
                0x000008c9       0x31 build/../../libmaple/wirish/wirish_digital.o
 .ARM.attributes
                0x000008fa       0x31 build/../../libmaple/libraries/Servo/Servo.o
 .ARM.attributes
                0x0000092b       0x31 build/../../libmaple/libraries/LiquidCrystal/LiquidCrystal.o
 .ARM.attributes
                0x0000095c       0x31 build/../../libmaple/libraries/Wire/Wire.o
 .ARM.attributes
                0x0000098d       0x31 build/../../libmaple/libraries/FreeRTOS/utility/croutine.o
 .ARM.attributes
                0x000009be       0x31 build/../../libmaple/libraries/FreeRTOS/utility/heap_2.o
 .ARM.attributes
                0x000009ef       0x31 build/../../libmaple/libraries/FreeRTOS/utility/list.o
 .ARM.attributes
                0x00000a20       0x31 build/../../libmaple/libraries/FreeRTOS/utility/port.o
 .ARM.attributes
                0x00000a51       0x31 build/../../libmaple/libraries/FreeRTOS/utility/queue.o
 .ARM.attributes
                0x00000a82       0x31 build/../../libmaple/libraries/FreeRTOS/utility/timers.o
 .ARM.attributes
                0x00000ab3       0x31 build/../../libmaple/libraries/FreeRTOS/utility/tasks.o
 .ARM.attributes
                0x00000ae4       0x31 build/../../libmaple/libraries/FreeRTOS/MapleFreeRTOS.o
 .ARM.attributes
                0x00000b15       0x31 build/IO.o
 .ARM.attributes
                0x00000b46       0x31 build/Infrareds.o
 .ARM.attributes
                0x00000b77       0x31 build/Sensors.o
 .ARM.attributes
                0x00000ba8       0x31 build/Ultrasonics.o
 .ARM.attributes
                0x00000bd9       0x31 build/main.o
 .ARM.attributes
                0x00000c0a       0x31 build/DriveControl.o
 .ARM.attributes
                0x00000c3b       0x31 build/MiceSensors.o
 .ARM.attributes
                0x00000c6c       0x1b /Users/alexanderryan/Programming/SmartMouse/MapleCode/arm/bin/../lib/gcc/arm-none-eabi/4.4.1/thumb2/libgcc.a(_arm_addsubdf3.o)
 .ARM.attributes
                0x00000c87       0x1b /Users/alexanderryan/Programming/SmartMouse/MapleCode/arm/bin/../lib/gcc/arm-none-eabi/4.4.1/thumb2/libgcc.a(_arm_muldivdf3.o)
 .ARM.attributes
                0x00000ca2       0x1b /Users/alexanderryan/Programming/SmartMouse/MapleCode/arm/bin/../lib/gcc/arm-none-eabi/4.4.1/thumb2/libgcc.a(_arm_cmpdf2.o)
 .ARM.attributes
                0x00000cbd       0x1b /Users/alexanderryan/Programming/SmartMouse/MapleCode/arm/bin/../lib/gcc/arm-none-eabi/4.4.1/thumb2/libgcc.a(_arm_fixdfsi.o)
 .ARM.attributes
                0x00000cd8       0x1b /Users/alexanderryan/Programming/SmartMouse/MapleCode/arm/bin/../lib/gcc/arm-none-eabi/4.4.1/thumb2/libgcc.a(_aeabi_uldivmod.o)
 .ARM.attributes
                0x00000cf3       0x29 /Users/alexanderryan/Programming/SmartMouse/MapleCode/arm/bin/../lib/gcc/arm-none-eabi/4.4.1/thumb2/libgcc.a(_fixdfdi.o)
 .ARM.attributes
                0x00000d1c       0x29 /Users/alexanderryan/Programming/SmartMouse/MapleCode/arm/bin/../lib/gcc/arm-none-eabi/4.4.1/thumb2/libgcc.a(_fixunsdfdi.o)
 .ARM.attributes
                0x00000d45       0x29 /Users/alexanderryan/Programming/SmartMouse/MapleCode/arm/bin/../lib/gcc/arm-none-eabi/4.4.1/thumb2/libgcc.a(bpabi.o)
 .ARM.attributes
                0x00000d6e       0x1b /Users/alexanderryan/Programming/SmartMouse/MapleCode/arm/bin/../lib/gcc/arm-none-eabi/4.4.1/thumb2/libgcc.a(_dvmd_tls.o)
 .ARM.attributes
                0x00000d89       0x1b /Users/alexanderryan/Programming/SmartMouse/MapleCode/arm/bin/../lib/gcc/arm-none-eabi/4.4.1/thumb2/libgcc.a(_arm_fixunsdfsi.o)
 .ARM.attributes
                0x00000da4       0x29 /Users/alexanderryan/Programming/SmartMouse/MapleCode/arm/bin/../lib/gcc/arm-none-eabi/4.4.1/thumb2/libgcc.a(_divdi3.o)
 .ARM.attributes
                0x00000dcd       0x29 /Users/alexanderryan/Programming/SmartMouse/MapleCode/arm/bin/../lib/gcc/arm-none-eabi/4.4.1/thumb2/libgcc.a(_udivdi3.o)
 .ARM.attributes
                0x00000df6       0x1b /Users/alexanderryan/Programming/SmartMouse/MapleCode/arm/bin/../lib/gcc/arm-none-eabi/4.4.1/thumb2/libgcc.a(_udivsi3.o)
 .ARM.attributes
                0x00000e11       0x29 /Users/alexanderryan/Programming/SmartMouse/MapleCode/arm/bin/../lib/gcc/arm-none-eabi/4.4.1/../../../../arm-none-eabi/lib/thumb2/libc.a(lib_a-errno.o)
 .ARM.attributes
                0x00000e3a       0x29 /Users/alexanderryan/Programming/SmartMouse/MapleCode/arm/bin/../lib/gcc/arm-none-eabi/4.4.1/../../../../arm-none-eabi/lib/thumb2/libc.a(lib_a-impure.o)
 .ARM.attributes
                0x00000e63       0x29 /Users/alexanderryan/Programming/SmartMouse/MapleCode/arm/bin/../lib/gcc/arm-none-eabi/4.4.1/../../../../arm-none-eabi/lib/thumb2/libc.a(lib_a-memcmp.o)
 .ARM.attributes
                0x00000e8c       0x29 /Users/alexanderryan/Programming/SmartMouse/MapleCode/arm/bin/../lib/gcc/arm-none-eabi/4.4.1/../../../../arm-none-eabi/lib/thumb2/libc.a(lib_a-memcpy.o)
 .ARM.attributes
                0x00000eb5       0x29 /Users/alexanderryan/Programming/SmartMouse/MapleCode/arm/bin/../lib/gcc/arm-none-eabi/4.4.1/../../../../arm-none-eabi/lib/thumb2/libc.a(lib_a-memset.o)
 .ARM.attributes
                0x00000ede       0x29 /Users/alexanderryan/Programming/SmartMouse/MapleCode/arm/bin/../lib/gcc/arm-none-eabi/4.4.1/../../../../arm-none-eabi/lib/thumb2/libc.a(lib_a-rand.o)
 .ARM.attributes
                0x00000f07       0x29 /Users/alexanderryan/Programming/SmartMouse/MapleCode/arm/bin/../lib/gcc/arm-none-eabi/4.4.1/../../../../arm-none-eabi/lib/thumb2/libc.a(lib_a-sprintf.o)
 .ARM.attributes
                0x00000f30       0x29 /Users/alexanderryan/Programming/SmartMouse/MapleCode/arm/bin/../lib/gcc/arm-none-eabi/4.4.1/../../../../arm-none-eabi/lib/thumb2/libc.a(lib_a-strcat.o)
 .ARM.attributes
                0x00000f59       0x29 /Users/alexanderryan/Programming/SmartMouse/MapleCode/arm/bin/../lib/gcc/arm-none-eabi/4.4.1/../../../../arm-none-eabi/lib/thumb2/libc.a(lib_a-strlen.o)
 .ARM.attributes
                0x00000f82       0x29 /Users/alexanderryan/Programming/SmartMouse/MapleCode/arm/bin/../lib/gcc/arm-none-eabi/4.4.1/../../../../arm-none-eabi/lib/thumb2/libc.a(lib_a-strncpy.o)
 .ARM.attributes
                0x00000fab       0x29 /Users/alexanderryan/Programming/SmartMouse/MapleCode/arm/bin/../lib/gcc/arm-none-eabi/4.4.1/../../../../arm-none-eabi/lib/thumb2/libc.a(lib_a-svfprintf.o)
 .ARM.attributes
                0x00000fd4       0x29 /Users/alexanderryan/Programming/SmartMouse/MapleCode/arm/bin/../lib/gcc/arm-none-eabi/4.4.1/../../../../arm-none-eabi/lib/thumb2/libc.a(lib_a-dtoa.o)
 .ARM.attributes
                0x00000ffd       0x29 /Users/alexanderryan/Programming/SmartMouse/MapleCode/arm/bin/../lib/gcc/arm-none-eabi/4.4.1/../../../../arm-none-eabi/lib/thumb2/libc.a(lib_a-freer.o)
 .ARM.attributes
                0x00001026       0x29 /Users/alexanderryan/Programming/SmartMouse/MapleCode/arm/bin/../lib/gcc/arm-none-eabi/4.4.1/../../../../arm-none-eabi/lib/thumb2/libc.a(lib_a-locale.o)
 .ARM.attributes
                0x0000104f       0x29 /Users/alexanderryan/Programming/SmartMouse/MapleCode/arm/bin/../lib/gcc/arm-none-eabi/4.4.1/../../../../arm-none-eabi/lib/thumb2/libc.a(lib_a-malloc.o)
 .ARM.attributes
                0x00001078       0x29 /Users/alexanderryan/Programming/SmartMouse/MapleCode/arm/bin/../lib/gcc/arm-none-eabi/4.4.1/../../../../arm-none-eabi/lib/thumb2/libc.a(lib_a-mallocr.o)
 .ARM.attributes
                0x000010a1       0x29 /Users/alexanderryan/Programming/SmartMouse/MapleCode/arm/bin/../lib/gcc/arm-none-eabi/4.4.1/../../../../arm-none-eabi/lib/thumb2/libc.a(lib_a-memchr.o)
 .ARM.attributes
                0x000010ca       0x29 /Users/alexanderryan/Programming/SmartMouse/MapleCode/arm/bin/../lib/gcc/arm-none-eabi/4.4.1/../../../../arm-none-eabi/lib/thumb2/libc.a(lib_a-memmove.o)
 .ARM.attributes
                0x000010f3       0x29 /Users/alexanderryan/Programming/SmartMouse/MapleCode/arm/bin/../lib/gcc/arm-none-eabi/4.4.1/../../../../arm-none-eabi/lib/thumb2/libc.a(lib_a-mlock.o)
 .ARM.attributes
                0x0000111c       0x29 /Users/alexanderryan/Programming/SmartMouse/MapleCode/arm/bin/../lib/gcc/arm-none-eabi/4.4.1/../../../../arm-none-eabi/lib/thumb2/libc.a(lib_a-mprec.o)
 .ARM.attributes
                0x00001145       0x29 /Users/alexanderryan/Programming/SmartMouse/MapleCode/arm/bin/../lib/gcc/arm-none-eabi/4.4.1/../../../../arm-none-eabi/lib/thumb2/libc.a(lib_a-reallocr.o)
 .ARM.attributes
                0x0000116e       0x29 /Users/alexanderryan/Programming/SmartMouse/MapleCode/arm/bin/../lib/gcc/arm-none-eabi/4.4.1/../../../../arm-none-eabi/lib/thumb2/libc.a(lib_a-s_isinfd.o)
 .ARM.attributes
                0x00001197       0x29 /Users/alexanderryan/Programming/SmartMouse/MapleCode/arm/bin/../lib/gcc/arm-none-eabi/4.4.1/../../../../arm-none-eabi/lib/thumb2/libc.a(lib_a-s_isnand.o)
 .ARM.attributes
                0x000011c0       0x29 /Users/alexanderryan/Programming/SmartMouse/MapleCode/arm/bin/../lib/gcc/arm-none-eabi/4.4.1/../../../../arm-none-eabi/lib/thumb2/libc.a(lib_a-sbrkr.o)
 .ARM.attributes
                0x000011e9       0x29 /Users/alexanderryan/Programming/SmartMouse/MapleCode/arm/bin/../lib/gcc/arm-none-eabi/4.4.1/../../../../arm-none-eabi/lib/thumb2/libc.a(lib_a-strcmp.o)
 .ARM.attributes
                0x00001212       0x29 /Users/alexanderryan/Programming/SmartMouse/MapleCode/arm/bin/../lib/gcc/arm-none-eabi/4.4.1/../../../../arm-none-eabi/lib/thumb2/libc.a(lib_a-callocr.o)
 .ARM.attributes
                0x0000123b       0x29 /Users/alexanderryan/Programming/SmartMouse/MapleCode/arm/bin/../lib/gcc/arm-none-eabi/4.4.1/../../../../arm-none-eabi/lib/thumb2/libc.a(lib_a-reent.o)
 .ARM.attributes
                0x00001264       0x1b /Users/alexanderryan/Programming/SmartMouse/MapleCode/arm/bin/../lib/gcc/arm-none-eabi/4.4.1/thumb2/libgcc.a(_divsi3.o)
 .ARM.attributes
                0x0000127f       0x29 /Users/alexanderryan/Programming/SmartMouse/MapleCode/arm/bin/../lib/gcc/arm-none-eabi/4.4.1/thumb2/crtend.o
 .ARM.attributes
                0x000012a8       0x19 /Users/alexanderryan/Programming/SmartMouse/MapleCode/arm/bin/../lib/gcc/arm-none-eabi/4.4.1/thumb2/crtn.o
 .ARM.attributes
                0x000012c1       0x16 ../../libmaple/support/ld/libcs3_stm32_high_density.a(stm32_vector_table.o)
 .ARM.attributes
                0x000012d7       0x16 ../../libmaple/support/ld/libcs3_stm32_high_density.a(stm32_isrs.o)
 .ARM.attributes
                0x000012ed       0x16 ../../libmaple/support/ld/libcs3_stm32_high_density.a(start.o)
 .ARM.attributes
                0x00001303       0x31 ../../libmaple/support/ld/libcs3_stm32_high_density.a(start_c.o)
 .ARM.attributes
                0x00001334       0x29 /Users/alexanderryan/Programming/SmartMouse/MapleCode/arm/bin/../lib/gcc/arm-none-eabi/4.4.1/../../../../arm-none-eabi/lib/thumb2/libc.a(lib_a-init.o)

/DISCARD/
 *(.note.GNU-stack)
OUTPUT(build/maple_RET6.elf elf32-littlearm)

.debug_ranges   0x00000000     0x22c0
 .debug_ranges  0x00000000       0x20 /Users/alexanderryan/Programming/SmartMouse/MapleCode/arm/bin/../lib/gcc/arm-none-eabi/4.4.1/thumb2/crti.o
 .debug_ranges  0x00000020       0x48 build/../../libmaple/libmaple/adc.o
 .debug_ranges  0x00000068       0x48 build/../../libmaple/libmaple/bkp.o
 .debug_ranges  0x000000b0       0x30 build/../../libmaple/libmaple/dac.o
 .debug_ranges  0x000000e0       0xe8 build/../../libmaple/libmaple/dma.o
 .debug_ranges  0x000001c8       0x78 build/../../libmaple/libmaple/exti.o
 .debug_ranges  0x00000240       0x20 build/../../libmaple/libmaple/flash.o
 .debug_ranges  0x00000260       0x18 build/../../libmaple/libmaple/fsmc.o
 .debug_ranges  0x00000278       0x40 build/../../libmaple/libmaple/gpio.o
 .debug_ranges  0x000002b8       0x20 build/../../libmaple/libmaple/iwdg.o
 .debug_ranges  0x000002d8       0x30 build/../../libmaple/libmaple/nvic.o
 .debug_ranges  0x00000308       0x18 build/../../libmaple/libmaple/pwr.o
 .debug_ranges  0x00000320      0x140 build/../../libmaple/libmaple/i2c.o
 .debug_ranges  0x00000460       0x40 build/../../libmaple/libmaple/rcc.o
 .debug_ranges  0x000004a0       0xd8 build/../../libmaple/libmaple/spi.o
 .debug_ranges  0x00000578       0x78 build/../../libmaple/libmaple/syscalls.o
 .debug_ranges  0x000005f0       0x38 build/../../libmaple/libmaple/systick.o
 .debug_ranges  0x00000628      0x1a8 build/../../libmaple/libmaple/timer.o
 .debug_ranges  0x000007d0       0xf8 build/../../libmaple/libmaple/usart.o
 .debug_ranges  0x000008c8       0x80 build/../../libmaple/libmaple/util.o
 .debug_ranges  0x00000948       0xf8 build/../../libmaple/libmaple/usb/usb.o
 .debug_ranges  0x00000a40       0x70 build/../../libmaple/libmaple/usb/usb_reg_map.o
 .debug_ranges  0x00000ab0      0x160 build/../../libmaple/libmaple/usb/usb_cdcacm.o
 .debug_ranges  0x00000c10       0xb0 build/../../libmaple/libmaple/usb/usb_lib/usb_core.o
 .debug_ranges  0x00000cc0       0x18 build/../../libmaple/libmaple/usb/usb_lib/usb_init.o
 .debug_ranges  0x00000cd8       0x20 build/../../libmaple/libmaple/usb/usb_lib/usb_mem.o
 .debug_ranges  0x00000cf8      0x218 build/../../libmaple/libmaple/usb/usb_lib/usb_regs.o
 .debug_ranges  0x00000f10       0x40 build/../../libmaple/wirish/wirish_math.o
 .debug_ranges  0x00000f50      0x128 build/../../libmaple/wirish/Print.o
 .debug_ranges  0x00001078       0xe0 build/../../libmaple/wirish/boards.o
 .debug_ranges  0x00001158       0x50 build/../../libmaple/wirish/boards/maple_RET6.o
 .debug_ranges  0x000011a8       0x90 build/../../libmaple/wirish/comm/HardwareSerial.o
 .debug_ranges  0x00001238      0x170 build/../../libmaple/wirish/comm/HardwareSPI.o
 .debug_ranges  0x000013a8      0x1b0 build/../../libmaple/wirish/HardwareTimer.o
 .debug_ranges  0x00001558       0xc0 build/../../libmaple/wirish/usb_serial.o
 .debug_ranges  0x00001618       0x18 build/../../libmaple/wirish/cxxabi-compat.o
 .debug_ranges  0x00001630       0x18 build/../../libmaple/wirish/wirish_shift.o
 .debug_ranges  0x00001648       0x38 build/../../libmaple/wirish/wirish_analog.o
 .debug_ranges  0x00001680       0x20 build/../../libmaple/wirish/wirish_time.o
 .debug_ranges  0x000016a0       0x18 build/../../libmaple/wirish/pwm.o
 .debug_ranges  0x000016b8       0x40 build/../../libmaple/wirish/ext_interrupts.o
 .debug_ranges  0x000016f8       0x98 build/../../libmaple/wirish/wirish_digital.o
 .debug_ranges  0x00001790       0xc0 build/../../libmaple/libraries/Servo/Servo.o
 .debug_ranges  0x00001850      0x158 build/../../libmaple/libraries/LiquidCrystal/LiquidCrystal.o
 .debug_ranges  0x000019a8      0x110 build/../../libmaple/libraries/Wire/Wire.o
 .debug_ranges  0x00001ab8       0x78 build/../../libmaple/libraries/FreeRTOS/utility/croutine.o
 .debug_ranges  0x00001b30       0x48 build/../../libmaple/libraries/FreeRTOS/utility/heap_2.o
 .debug_ranges  0x00001b78       0x38 build/../../libmaple/libraries/FreeRTOS/utility/list.o
 .debug_ranges  0x00001bb0       0x60 build/../../libmaple/libraries/FreeRTOS/utility/port.o
 .debug_ranges  0x00001c10       0x98 build/../../libmaple/libraries/FreeRTOS/utility/queue.o
 .debug_ranges  0x00001ca8      0x1e0 build/../../libmaple/libraries/FreeRTOS/utility/tasks.o
 .debug_ranges  0x00001e88       0x18 build/../../libmaple/libraries/FreeRTOS/MapleFreeRTOS.o
 .debug_ranges  0x00001ea0       0x18 build/IO.o
 .debug_ranges  0x00001eb8       0xd8 build/Infrareds.o
 .debug_ranges  0x00001f90       0x18 build/Sensors.o
 .debug_ranges  0x00001fa8       0xd0 build/Ultrasonics.o
 .debug_ranges  0x00002078       0x48 build/main.o
 .debug_ranges  0x000020c0       0x30 build/DriveControl.o
 .debug_ranges  0x000020f0       0x18 build/MiceSensors.o
 .debug_ranges  0x00002108       0xd0 /Users/alexanderryan/Programming/SmartMouse/MapleCode/arm/bin/../lib/gcc/arm-none-eabi/4.4.1/thumb2/libgcc.a(_divdi3.o)
 .debug_ranges  0x000021d8       0xc8 /Users/alexanderryan/Programming/SmartMouse/MapleCode/arm/bin/../lib/gcc/arm-none-eabi/4.4.1/thumb2/libgcc.a(_udivdi3.o)
 .debug_ranges  0x000022a0       0x20 /Users/alexanderryan/Programming/SmartMouse/MapleCode/arm/bin/../lib/gcc/arm-none-eabi/4.4.1/thumb2/crtn.o
